TN:
SF:/usr/include/c++/12/ext/alloc_traits.h
FN:97,_ZN9__gnu_cxx14__alloc_traitsISaIcEcE17_S_select_on_copyERKS1_
FNDA:0,_ZN9__gnu_cxx14__alloc_traitsISaIcEcE17_S_select_on_copyERKS1_
DA:97,0
DA:98,0
end_of_record
SF:/home/boss/cjadhav/work/Programming_Practice/chef_kitchen/LRU/src/DoubleLL.cpp
FN:5,_ZN10LinkedList8DoubleLLC2EiNSt7__cxx1112basic_stringIcSt11char_traitsIcESaIcEEEPS0_S7_
FNDA:58,_ZN10LinkedList8DoubleLLC2EiNSt7__cxx1112basic_stringIcSt11char_traitsIcESaIcEEEPS0_S7_
FN:7,_ZN10LinkedList8DoubleLLD2Ev
FNDA:58,_ZN10LinkedList8DoubleLLD2Ev
DA:5,58
DA:6,58
DA:7,58
end_of_record
SF:/usr/include/c++/12/bits/basic_string.tcc
FN:217,_ZNSt7__cxx1112basic_stringIcSt11char_traitsIcESaIcEE12_M_constructIPcEEvT_S7_St20forward_iterator_tag
FNDA:0,_ZNSt7__cxx1112basic_stringIcSt11char_traitsIcESaIcEE12_M_constructIPcEEvT_S7_St20forward_iterator_tag
FN:235,_ZZNSt7__cxx1112basic_stringIcSt11char_traitsIcESaIcEE12_M_constructIPcEEvT_S7_St20forward_iterator_tagEN6_GuardC2EPS4_
FNDA:0,_ZZNSt7__cxx1112basic_stringIcSt11char_traitsIcESaIcEE12_M_constructIPcEEvT_S7_St20forward_iterator_tagEN6_GuardC2EPS4_
FN:238,_ZZNSt7__cxx1112basic_stringIcSt11char_traitsIcESaIcEE12_M_constructIPcEEvT_S7_St20forward_iterator_tagEN6_GuardD2Ev
FNDA:0,_ZZNSt7__cxx1112basic_stringIcSt11char_traitsIcESaIcEE12_M_constructIPcEEvT_S7_St20forward_iterator_tagEN6_GuardD2Ev
DA:217,0
DA:221,0
DA:223,0
DA:225,0
DA:226,0
DA:235,0
DA:238,0
DA:241,0
DA:243,0
DA:245,0
DA:247,0
DA:248,0
end_of_record
SF:/usr/include/c++/12/bits/stl_iterator_base_funcs.h
FN:99,_ZSt10__distanceIPcENSt15iterator_traitsIT_E15difference_typeES2_S2_St26random_access_iterator_tag
FNDA:0,_ZSt10__distanceIPcENSt15iterator_traitsIT_E15difference_typeES2_S2_St26random_access_iterator_tag
FN:147,_ZSt8distanceIPcENSt15iterator_traitsIT_E15difference_typeES2_S2_
FNDA:0,_ZSt8distanceIPcENSt15iterator_traitsIT_E15difference_typeES2_S2_
DA:99,0
DA:105,0
DA:147,0
DA:150,0
DA:151,0
end_of_record
SF:/usr/include/c++/12/bits/new_allocator.h
FN:83,_ZNSt15__new_allocatorIcEC2ERKS0_
FNDA:0,_ZNSt15__new_allocatorIcEC2ERKS0_
FN:90,_ZNSt15__new_allocatorIcED2Ev
FNDA:0,_ZNSt15__new_allocatorIcED2Ev
DA:83,0
DA:90,0
end_of_record
SF:/usr/include/c++/12/bits/stl_iterator_base_types.h
FN:238,_ZSt19__iterator_categoryIPcENSt15iterator_traitsIT_E17iterator_categoryERKS2_
FNDA:0,_ZSt19__iterator_categoryIPcENSt15iterator_traitsIT_E17iterator_categoryERKS2_
DA:238,0
DA:239,0
end_of_record
SF:/usr/include/c++/12/bits/basic_string.h
DA:358,0
end_of_record
SF:/usr/include/c++/12/bits/move.h
FN:104,_ZSt4moveIRSaIcEEONSt16remove_referenceIT_E4typeEOS3_
FNDA:0,_ZSt4moveIRSaIcEEONSt16remove_referenceIT_E4typeEOS3_
DA:104,0
DA:105,0
end_of_record
SF:/usr/include/c++/12/bits/alloc_traits.h
FN:562,_ZNSt16allocator_traitsISaIcEE37select_on_container_copy_constructionERKS0_
FNDA:0,_ZNSt16allocator_traitsISaIcEE37select_on_container_copy_constructionERKS0_
DA:562,0
DA:563,0
end_of_record
TN:
SF:/usr/include/c++/12/bits/move.h
FN:104,_ZSt4moveIRSaIcEEONSt16remove_referenceIT_E4typeEOS3_
FNDA:0,_ZSt4moveIRSaIcEEONSt16remove_referenceIT_E4typeEOS3_
DA:104,0
DA:105,0
end_of_record
SF:/usr/include/c++/12/bits/alloc_traits.h
FN:562,_ZNSt16allocator_traitsISaIcEE37select_on_container_copy_constructionERKS0_
FNDA:0,_ZNSt16allocator_traitsISaIcEE37select_on_container_copy_constructionERKS0_
DA:562,0
DA:563,0
end_of_record
SF:/usr/include/c++/12/bits/basic_string.h
FN:3584,_ZSteqIcEN9__gnu_cxx11__enable_ifIXsrSt9__is_charIT_E7__valueEbE6__typeERKNSt7__cxx1112basic_stringIS3_St11char_traitsIS3_ESaIS3_EEESE_
FNDA:166,_ZSteqIcEN9__gnu_cxx11__enable_ifIXsrSt9__is_charIT_E7__valueEbE6__typeERKNSt7__cxx1112basic_stringIS3_St11char_traitsIS3_ESaIS3_EEESE_
DA:358,0
DA:3584,166
DA:3586,166
DA:3587,166
DA:3588,166
end_of_record
SF:/usr/include/c++/12/bits/char_traits.h
FN:362,_ZNSt11char_traitsIcE2ltERKcS2_
FNDA:0,_ZNSt11char_traitsIcE2ltERKcS2_
FN:370,_ZNSt11char_traitsIcE7compareEPKcS2_m
FNDA:150,_ZNSt11char_traitsIcE7compareEPKcS2_m
DA:362,0
DA:365,0
DA:366,0
DA:370,150
DA:372,150
DA:373,0
DA:375,150
DA:377,0
DA:378,0
DA:379,0
DA:380,0
DA:381,0
DA:382,0
DA:385,150
end_of_record
SF:/usr/include/c++/12/bits/stl_iterator_base_funcs.h
FN:99,_ZSt10__distanceIPcENSt15iterator_traitsIT_E15difference_typeES2_S2_St26random_access_iterator_tag
FNDA:0,_ZSt10__distanceIPcENSt15iterator_traitsIT_E15difference_typeES2_S2_St26random_access_iterator_tag
FN:147,_ZSt8distanceIPcENSt15iterator_traitsIT_E15difference_typeES2_S2_
FNDA:0,_ZSt8distanceIPcENSt15iterator_traitsIT_E15difference_typeES2_S2_
DA:99,0
DA:105,0
DA:147,0
DA:150,0
DA:151,0
end_of_record
SF:/usr/include/c++/12/iostream
end_of_record
SF:/home/boss/cjadhav/work/Programming_Practice/chef_kitchen/LRU/src/DoublelyLinkedList.cpp
FN:6,_ZN10LinkedList18DoublelyLinkedListC2Ev
FNDA:24,_ZN10LinkedList18DoublelyLinkedListC2Ev
FN:8,_ZN10LinkedList18DoublelyLinkedList7AddNodeEiNSt7__cxx1112basic_stringIcSt11char_traitsIcESaIcEEE
FNDA:46,_ZN10LinkedList18DoublelyLinkedList7AddNodeEiNSt7__cxx1112basic_stringIcSt11char_traitsIcESaIcEEE
FN:29,_ZN10LinkedList18DoublelyLinkedList12AddNodeFrontEiNSt7__cxx1112basic_stringIcSt11char_traitsIcESaIcEEE
FNDA:6,_ZN10LinkedList18DoublelyLinkedList12AddNodeFrontEiNSt7__cxx1112basic_stringIcSt11char_traitsIcESaIcEEE
FN:46,_ZN10LinkedList18DoublelyLinkedList7AddNodeEiNSt7__cxx1112basic_stringIcSt11char_traitsIcESaIcEEEi
FNDA:12,_ZN10LinkedList18DoublelyLinkedList7AddNodeEiNSt7__cxx1112basic_stringIcSt11char_traitsIcESaIcEEEi
FN:89,_ZN10LinkedList18DoublelyLinkedList13MoveNodeFrontEPNS_8DoubleLLE
FNDA:6,_ZN10LinkedList18DoublelyLinkedList13MoveNodeFrontEPNS_8DoubleLLE
FN:111,_ZN10LinkedList18DoublelyLinkedList10RemoveNodeEPNS_8DoubleLLE
FNDA:12,_ZN10LinkedList18DoublelyLinkedList10RemoveNodeEPNS_8DoubleLLE
FN:134,_ZN10LinkedList18DoublelyLinkedList7GetNodeERKNSt7__cxx1112basic_stringIcSt11char_traitsIcESaIcEEE
FNDA:14,_ZN10LinkedList18DoublelyLinkedList7GetNodeERKNSt7__cxx1112basic_stringIcSt11char_traitsIcESaIcEEE
FN:154,_ZN10LinkedList18DoublelyLinkedList7GetNodeEi
FNDA:50,_ZN10LinkedList18DoublelyLinkedList7GetNodeEi
FN:196,_ZN10LinkedList18DoublelyLinkedList9SwapNodesEPNS_8DoubleLLES2_
FNDA:10,_ZN10LinkedList18DoublelyLinkedList9SwapNodesEPNS_8DoubleLLES2_
FN:265,_ZN10LinkedList18DoublelyLinkedList10RemoveNodeEi
FNDA:8,_ZN10LinkedList18DoublelyLinkedList10RemoveNodeEi
FN:276,_ZN10LinkedList18DoublelyLinkedList7GetHeadEv
FNDA:242,_ZN10LinkedList18DoublelyLinkedList7GetHeadEv
FN:285,_ZN10LinkedList18DoublelyLinkedList7GetTailEv
FNDA:158,_ZN10LinkedList18DoublelyLinkedList7GetTailEv
FN:294,_ZN10LinkedList18DoublelyLinkedList7GetSizeEv
FNDA:134,_ZN10LinkedList18DoublelyLinkedList7GetSizeEv
FN:298,_ZN10LinkedList18DoublelyLinkedListD2Ev
FNDA:24,_ZN10LinkedList18DoublelyLinkedListD2Ev
DA:6,24
DA:8,46
DA:10,46
DA:11,46
DA:13,16
DA:14,16
DA:15,16
DA:16,16
DA:20,30
DA:21,30
DA:22,30
DA:23,30
DA:24,30
DA:29,6
DA:31,6
DA:32,6
DA:34,2
DA:35,2
DA:37,6
DA:38,6
DA:40,4
DA:42,6
DA:43,6
DA:46,12
DA:48,12
DA:50,4
DA:51,4
DA:54,8
DA:56,2
DA:59,6
DA:62,6
DA:65,6
DA:66,6
DA:67,10
DA:69,4
DA:70,4
DA:72,6
DA:73,6
DA:74,6
DA:76,2
DA:78,6
DA:79,6
DA:81,4
DA:83,6
DA:84,6
DA:86,0
DA:89,6
DA:91,6
DA:93,4
DA:95,2
DA:96,2
DA:98,4
DA:99,4
DA:101,4
DA:102,4
DA:104,4
DA:105,4
DA:107,4
DA:111,12
DA:113,12
DA:115,12
DA:116,4
DA:117,8
DA:118,4
DA:119,4
DA:120,4
DA:121,2
DA:122,2
DA:124,2
DA:125,2
DA:128,12
DA:129,12
DA:130,12
DA:134,14
DA:136,14
DA:137,12
DA:138,8
DA:141,6
DA:142,6
DA:143,10
DA:145,4
DA:146,4
DA:147,4
DA:148,4
DA:150,6
DA:151,4
DA:154,50
DA:156,50
DA:158,48
DA:160,20
DA:163,28
DA:165,10
DA:167,18
DA:168,18
DA:170,18
DA:172,2
DA:173,2
DA:176,32
DA:178,22
DA:180,4
DA:182,18
DA:184,2
DA:186,16
DA:187,16
DA:189,10
DA:191,6
DA:193,4
DA:196,10
DA:198,10
DA:200,8
DA:202,4
DA:203,4
DA:204,4
DA:206,4
DA:207,4
DA:208,2
DA:210,4
DA:211,4
DA:214,4
DA:215,4
DA:217,4
DA:219,4
DA:221,0
DA:222,0
DA:223,0
DA:225,0
DA:226,0
DA:227,0
DA:230,0
DA:231,0
DA:233,0
DA:237,4
DA:238,0
DA:240,4
DA:241,4
DA:244,4
DA:245,4
DA:246,4
DA:247,4
DA:250,4
DA:251,4
DA:252,4
DA:253,4
DA:256,4
DA:257,4
DA:258,4
DA:259,4
DA:261,4
DA:265,8
DA:267,8
DA:268,8
DA:270,6
DA:271,6
DA:273,2
DA:276,242
DA:278,242
DA:280,220
DA:282,22
DA:285,158
DA:287,158
DA:289,142
DA:291,16
DA:294,134
DA:296,134
DA:298,24
DA:300,24
DA:301,70
DA:302,46
DA:303,46
DA:304,46
DA:306,24
end_of_record
SF:/usr/include/c++/12/ext/alloc_traits.h
FN:97,_ZN9__gnu_cxx14__alloc_traitsISaIcEcE17_S_select_on_copyERKS1_
FNDA:0,_ZN9__gnu_cxx14__alloc_traitsISaIcEcE17_S_select_on_copyERKS1_
DA:97,0
DA:98,0
end_of_record
SF:/usr/include/c++/12/bits/basic_string.tcc
FN:217,_ZNSt7__cxx1112basic_stringIcSt11char_traitsIcESaIcEE12_M_constructIPcEEvT_S7_St20forward_iterator_tag
FNDA:0,_ZNSt7__cxx1112basic_stringIcSt11char_traitsIcESaIcEE12_M_constructIPcEEvT_S7_St20forward_iterator_tag
FN:235,_ZZNSt7__cxx1112basic_stringIcSt11char_traitsIcESaIcEE12_M_constructIPcEEvT_S7_St20forward_iterator_tagEN6_GuardC2EPS4_
FNDA:0,_ZZNSt7__cxx1112basic_stringIcSt11char_traitsIcESaIcEE12_M_constructIPcEEvT_S7_St20forward_iterator_tagEN6_GuardC2EPS4_
FN:238,_ZZNSt7__cxx1112basic_stringIcSt11char_traitsIcESaIcEE12_M_constructIPcEEvT_S7_St20forward_iterator_tagEN6_GuardD2Ev
FNDA:0,_ZZNSt7__cxx1112basic_stringIcSt11char_traitsIcESaIcEE12_M_constructIPcEEvT_S7_St20forward_iterator_tagEN6_GuardD2Ev
DA:217,0
DA:221,0
DA:223,0
DA:225,0
DA:226,0
DA:235,0
DA:238,0
DA:241,0
DA:243,0
DA:245,0
DA:247,0
DA:248,0
end_of_record
SF:/usr/include/x86_64-linux-gnu/c++/12/bits/c++config.h
FN:516,_ZSt23__is_constant_evaluatedv
FNDA:380,_ZSt23__is_constant_evaluatedv
DA:516,380
DA:523,380
end_of_record
SF:/usr/include/c++/12/bits/new_allocator.h
FN:83,_ZNSt15__new_allocatorIcEC2ERKS0_
FNDA:0,_ZNSt15__new_allocatorIcEC2ERKS0_
FN:90,_ZNSt15__new_allocatorIcED2Ev
FNDA:0,_ZNSt15__new_allocatorIcED2Ev
DA:83,0
DA:90,0
end_of_record
SF:/usr/include/c++/12/bits/stl_iterator_base_types.h
FN:238,_ZSt19__iterator_categoryIPcENSt15iterator_traitsIT_E17iterator_categoryERKS2_
FNDA:0,_ZSt19__iterator_categoryIPcENSt15iterator_traitsIT_E17iterator_categoryERKS2_
DA:238,0
DA:239,0
end_of_record
TN:
SF:/usr/include/gtest/internal/gtest-port.h
FN:967,_ZN7testing8internal8GTestLog9GetStreamEv
FNDA:0,_ZN7testing8internal8GTestLog9GetStreamEv
DA:967,0
end_of_record
SF:/usr/include/c++/12/bits/stl_iterator.h
FN:1072,_ZN9__gnu_cxx17__normal_iteratorIPKSt4pairIiNSt7__cxx1112basic_stringIcSt11char_traitsIcESaIcEEEESt6vectorIS8_SaIS8_EEEC2ERKSA_
FNDA:68,_ZN9__gnu_cxx17__normal_iteratorIPKSt4pairIiNSt7__cxx1112basic_stringIcSt11char_traitsIcESaIcEEEESt6vectorIS8_SaIS8_EEEC2ERKSA_
FN:1095,_ZNK9__gnu_cxx17__normal_iteratorIPKSt4pairIiNSt7__cxx1112basic_stringIcSt11char_traitsIcESaIcEEEESt6vectorIS8_SaIS8_EEEdeEv
FNDA:96,_ZNK9__gnu_cxx17__normal_iteratorIPKSt4pairIiNSt7__cxx1112basic_stringIcSt11char_traitsIcESaIcEEEESt6vectorIS8_SaIS8_EEEdeEv
FN:1105,_ZN9__gnu_cxx17__normal_iteratorIPKSt4pairIiNSt7__cxx1112basic_stringIcSt11char_traitsIcESaIcEEEESt6vectorIS8_SaIS8_EEEppEv
FNDA:96,_ZN9__gnu_cxx17__normal_iteratorIPKSt4pairIiNSt7__cxx1112basic_stringIcSt11char_traitsIcESaIcEEEESt6vectorIS8_SaIS8_EEEppEv
FN:1158,_ZNK9__gnu_cxx17__normal_iteratorIPKSt4pairIiNSt7__cxx1112basic_stringIcSt11char_traitsIcESaIcEEEESt6vectorIS8_SaIS8_EEE4baseEv
FNDA:260,_ZNK9__gnu_cxx17__normal_iteratorIPKSt4pairIiNSt7__cxx1112basic_stringIcSt11char_traitsIcESaIcEEEESt6vectorIS8_SaIS8_EEE4baseEv
FN:1237,_ZN9__gnu_cxxneIPKSt4pairIiNSt7__cxx1112basic_stringIcSt11char_traitsIcESaIcEEEESt6vectorIS8_SaIS8_EEEEbRKNS_17__normal_iteratorIT_T0_EESJ_
FNDA:130,_ZN9__gnu_cxxneIPKSt4pairIiNSt7__cxx1112basic_stringIcSt11char_traitsIcESaIcEEEESt6vectorIS8_SaIS8_EEEEbRKNS_17__normal_iteratorIT_T0_EESJ_
DA:1072,68
DA:1073,68
DA:1095,96
DA:1096,96
DA:1105,96
DA:1107,96
DA:1108,96
DA:1158,260
DA:1159,260
DA:1237,130
DA:1240,130
end_of_record
SF:/usr/include/c++/12/bits/stl_construct.h
FN:109,_ZSt10_ConstructISt4pairIiNSt7__cxx1112basic_stringIcSt11char_traitsIcESaIcEEEEJRKS7_EEvPT_DpOT0_
FNDA:96,_ZSt10_ConstructISt4pairIiNSt7__cxx1112basic_stringIcSt11char_traitsIcESaIcEEEEJRKS7_EEvPT_DpOT0_
FN:146,_ZSt8_DestroyISt4pairIiNSt7__cxx1112basic_stringIcSt11char_traitsIcESaIcEEEEEvPT_
FNDA:96,_ZSt8_DestroyISt4pairIiNSt7__cxx1112basic_stringIcSt11char_traitsIcESaIcEEEEEvPT_
FN:160,_ZNSt12_Destroy_auxILb0EE9__destroyIPSt4pairIiNSt7__cxx1112basic_stringIcSt11char_traitsIcESaIcEEEEEEvT_SB_
FNDA:34,_ZNSt12_Destroy_auxILb0EE9__destroyIPSt4pairIiNSt7__cxx1112basic_stringIcSt11char_traitsIcESaIcEEEEEEvT_SB_
FN:182,_ZSt8_DestroyIPSt4pairIiNSt7__cxx1112basic_stringIcSt11char_traitsIcESaIcEEEEEvT_S9_
FNDA:34,_ZSt8_DestroyIPSt4pairIiNSt7__cxx1112basic_stringIcSt11char_traitsIcESaIcEEEEEvT_S9_
DA:109,96
DA:119,96
DA:120,96
DA:146,96
DA:151,96
DA:153,96
DA:160,34
DA:162,130
DA:163,96
DA:164,34
DA:182,34
DA:196,34
DA:197,34
end_of_record
SF:/usr/include/c++/12/bits/stl_pair.h
FN:195,_ZNSt4pairIiNSt7__cxx1112basic_stringIcSt11char_traitsIcESaIcEEEEC2ERKS6_
FNDA:96,_ZNSt4pairIiNSt7__cxx1112basic_stringIcSt11char_traitsIcESaIcEEEEC2ERKS6_
FN:534,_ZNSt4pairIiNSt7__cxx1112basic_stringIcSt11char_traitsIcESaIcEEEEC1IiRA5_KcLb1EEEOT_OT0_
FNDA:12,_ZNSt4pairIiNSt7__cxx1112basic_stringIcSt11char_traitsIcESaIcEEEEC1IiRA5_KcLb1EEEOT_OT0_
FN:534,_ZNSt4pairIiNSt7__cxx1112basic_stringIcSt11char_traitsIcESaIcEEEEC1IiRA6_KcLb1EEEOT_OT0_
FNDA:26,_ZNSt4pairIiNSt7__cxx1112basic_stringIcSt11char_traitsIcESaIcEEEEC1IiRA6_KcLb1EEEOT_OT0_
FN:534,_ZNSt4pairIiNSt7__cxx1112basic_stringIcSt11char_traitsIcESaIcEEEEC1IiRA4_KcLb1EEEOT_OT0_
FNDA:58,_ZNSt4pairIiNSt7__cxx1112basic_stringIcSt11char_traitsIcESaIcEEEEC1IiRA4_KcLb1EEEOT_OT0_
FN:815,_ZNSt10__pair_getILm0EE11__const_getIiNSt7__cxx1112basic_stringIcSt11char_traitsIcESaIcEEEEERKT_RKSt4pairIS8_T0_E
FNDA:96,_ZNSt10__pair_getILm0EE11__const_getIiNSt7__cxx1112basic_stringIcSt11char_traitsIcESaIcEEEEERKT_RKSt4pairIS8_T0_E
FN:839,_ZNSt10__pair_getILm1EE11__const_getIiNSt7__cxx1112basic_stringIcSt11char_traitsIcESaIcEEEEERKT0_RKSt4pairIT_S8_E
FNDA:96,_ZNSt10__pair_getILm1EE11__const_getIiNSt7__cxx1112basic_stringIcSt11char_traitsIcESaIcEEEEERKT0_RKSt4pairIT_S8_E
FN:865,_ZSt3getILm1EiNSt7__cxx1112basic_stringIcSt11char_traitsIcESaIcEEEERKNSt13tuple_elementIXT_ESt4pairIT0_T1_EE4typeERKSA_
FNDA:96,_ZSt3getILm1EiNSt7__cxx1112basic_stringIcSt11char_traitsIcESaIcEEEERKNSt13tuple_elementIXT_ESt4pairIT0_T1_EE4typeERKSA_
FN:865,_ZSt3getILm0EiNSt7__cxx1112basic_stringIcSt11char_traitsIcESaIcEEEERKNSt13tuple_elementIXT_ESt4pairIT0_T1_EE4typeERKSA_
FNDA:96,_ZSt3getILm0EiNSt7__cxx1112basic_stringIcSt11char_traitsIcESaIcEEEERKNSt13tuple_elementIXT_ESt4pairIT0_T1_EE4typeERKSA_
DA:195,96
DA:534,12
DA:535,12
DA:534,26
DA:535,26
DA:534,58
DA:535,58
DA:815,96
DA:816,96
DA:839,96
DA:840,96
DA:865,96
DA:866,96
DA:865,96
DA:866,96
end_of_record
SF:/usr/include/c++/12/bits/allocator.h
FN:156,_ZNSaISt4pairIiNSt7__cxx1112basic_stringIcSt11char_traitsIcESaIcEEEEEC2Ev
FNDA:34,_ZNSaISt4pairIiNSt7__cxx1112basic_stringIcSt11char_traitsIcESaIcEEEEEC2Ev
FN:159,_ZNSaISt4pairIiNSt7__cxx1112basic_stringIcSt11char_traitsIcESaIcEEEEEC2ERKS7_
FNDA:68,_ZNSaISt4pairIiNSt7__cxx1112basic_stringIcSt11char_traitsIcESaIcEEEEEC2ERKS7_
FN:174,_ZNSaISt4pairIiNSt7__cxx1112basic_stringIcSt11char_traitsIcESaIcEEEEED2Ev
FNDA:102,_ZNSaISt4pairIiNSt7__cxx1112basic_stringIcSt11char_traitsIcESaIcEEEEED2Ev
DA:156,34
DA:159,68
DA:160,68
DA:174,102
end_of_record
SF:/usr/include/c++/12/bits/unique_ptr.h
FN:89,_ZNKSt14default_deleteINSt7__cxx1112basic_stringIcSt11char_traitsIcESaIcEEEEclEPS5_
FNDA:0,_ZNKSt14default_deleteINSt7__cxx1112basic_stringIcSt11char_traitsIcESaIcEEEEclEPS5_
FN:89,_ZNKSt14default_deleteINSt7__cxx1118basic_stringstreamIcSt11char_traitsIcESaIcEEEEclEPS5_
FNDA:0,_ZNKSt14default_deleteINSt7__cxx1118basic_stringstreamIcSt11char_traitsIcESaIcEEEEclEPS5_
FN:166,_ZNSt15__uniq_ptr_implINSt7__cxx1112basic_stringIcSt11char_traitsIcESaIcEEESt14default_deleteIS5_EEC2Ev
FNDA:50,_ZNSt15__uniq_ptr_implINSt7__cxx1112basic_stringIcSt11char_traitsIcESaIcEEESt14default_deleteIS5_EEC2Ev
FN:189,_ZNSt15__uniq_ptr_implINSt7__cxx1112basic_stringIcSt11char_traitsIcESaIcEEESt14default_deleteIS5_EE6_M_ptrEv
FNDA:1008,_ZNSt15__uniq_ptr_implINSt7__cxx1112basic_stringIcSt11char_traitsIcESaIcEEESt14default_deleteIS5_EE6_M_ptrEv
FN:189,_ZNSt15__uniq_ptr_implINSt7__cxx1118basic_stringstreamIcSt11char_traitsIcESaIcEEESt14default_deleteIS5_EE6_M_ptrEv
FNDA:0,_ZNSt15__uniq_ptr_implINSt7__cxx1118basic_stringstreamIcSt11char_traitsIcESaIcEEESt14default_deleteIS5_EE6_M_ptrEv
FN:191,_ZNKSt15__uniq_ptr_implINSt7__cxx1118basic_stringstreamIcSt11char_traitsIcESaIcEEESt14default_deleteIS5_EE6_M_ptrEv
FNDA:0,_ZNKSt15__uniq_ptr_implINSt7__cxx1118basic_stringstreamIcSt11char_traitsIcESaIcEEESt14default_deleteIS5_EE6_M_ptrEv
FN:191,_ZNKSt15__uniq_ptr_implINSt7__cxx1112basic_stringIcSt11char_traitsIcESaIcEEESt14default_deleteIS5_EE6_M_ptrEv
FNDA:0,_ZNKSt15__uniq_ptr_implINSt7__cxx1112basic_stringIcSt11char_traitsIcESaIcEEESt14default_deleteIS5_EE6_M_ptrEv
FN:193,_ZNSt15__uniq_ptr_implINSt7__cxx1118basic_stringstreamIcSt11char_traitsIcESaIcEEESt14default_deleteIS5_EE10_M_deleterEv
FNDA:0,_ZNSt15__uniq_ptr_implINSt7__cxx1118basic_stringstreamIcSt11char_traitsIcESaIcEEESt14default_deleteIS5_EE10_M_deleterEv
FN:193,_ZNSt15__uniq_ptr_implINSt7__cxx1112basic_stringIcSt11char_traitsIcESaIcEEESt14default_deleteIS5_EE10_M_deleterEv
FNDA:0,_ZNSt15__uniq_ptr_implINSt7__cxx1112basic_stringIcSt11char_traitsIcESaIcEEESt14default_deleteIS5_EE10_M_deleterEv
FN:198,_ZNSt15__uniq_ptr_implINSt7__cxx1112basic_stringIcSt11char_traitsIcESaIcEEESt14default_deleteIS5_EE5resetEPS5_
FNDA:0,_ZNSt15__uniq_ptr_implINSt7__cxx1112basic_stringIcSt11char_traitsIcESaIcEEESt14default_deleteIS5_EE5resetEPS5_
FN:296,_ZNSt10unique_ptrINSt7__cxx1112basic_stringIcSt11char_traitsIcESaIcEEESt14default_deleteIS5_EEC2IS7_vEEv
FNDA:50,_ZNSt10unique_ptrINSt7__cxx1112basic_stringIcSt11char_traitsIcESaIcEEESt14default_deleteIS5_EEC2IS7_vEEv
FN:390,_ZNSt10unique_ptrINSt7__cxx1118basic_stringstreamIcSt11char_traitsIcESaIcEEESt14default_deleteIS5_EED2Ev
FNDA:0,_ZNSt10unique_ptrINSt7__cxx1118basic_stringstreamIcSt11char_traitsIcESaIcEEESt14default_deleteIS5_EED2Ev
FN:390,_ZNSt10unique_ptrINSt7__cxx1112basic_stringIcSt11char_traitsIcESaIcEEESt14default_deleteIS5_EED2Ev
FNDA:1008,_ZNSt10unique_ptrINSt7__cxx1112basic_stringIcSt11char_traitsIcESaIcEEESt14default_deleteIS5_EED2Ev
FN:443,_ZNKSt10unique_ptrINSt7__cxx1118basic_stringstreamIcSt11char_traitsIcESaIcEEESt14default_deleteIS5_EEdeEv
FNDA:0,_ZNKSt10unique_ptrINSt7__cxx1118basic_stringstreamIcSt11char_traitsIcESaIcEEESt14default_deleteIS5_EEdeEv
FN:452,_ZNKSt10unique_ptrINSt7__cxx1112basic_stringIcSt11char_traitsIcESaIcEEESt14default_deleteIS5_EEptEv
FNDA:0,_ZNKSt10unique_ptrINSt7__cxx1112basic_stringIcSt11char_traitsIcESaIcEEESt14default_deleteIS5_EEptEv
FN:461,_ZNKSt10unique_ptrINSt7__cxx1118basic_stringstreamIcSt11char_traitsIcESaIcEEESt14default_deleteIS5_EE3getEv
FNDA:0,_ZNKSt10unique_ptrINSt7__cxx1118basic_stringstreamIcSt11char_traitsIcESaIcEEESt14default_deleteIS5_EE3getEv
FN:461,_ZNKSt10unique_ptrINSt7__cxx1112basic_stringIcSt11char_traitsIcESaIcEEESt14default_deleteIS5_EE3getEv
FNDA:0,_ZNKSt10unique_ptrINSt7__cxx1112basic_stringIcSt11char_traitsIcESaIcEEESt14default_deleteIS5_EE3getEv
FN:467,_ZNSt10unique_ptrINSt7__cxx1118basic_stringstreamIcSt11char_traitsIcESaIcEEESt14default_deleteIS5_EE11get_deleterEv
FNDA:0,_ZNSt10unique_ptrINSt7__cxx1118basic_stringstreamIcSt11char_traitsIcESaIcEEESt14default_deleteIS5_EE11get_deleterEv
FN:467,_ZNSt10unique_ptrINSt7__cxx1112basic_stringIcSt11char_traitsIcESaIcEEESt14default_deleteIS5_EE11get_deleterEv
FNDA:0,_ZNSt10unique_ptrINSt7__cxx1112basic_stringIcSt11char_traitsIcESaIcEEESt14default_deleteIS5_EE11get_deleterEv
FN:497,_ZNSt10unique_ptrINSt7__cxx1112basic_stringIcSt11char_traitsIcESaIcEEESt14default_deleteIS5_EE5resetEPS5_
FNDA:0,_ZNSt10unique_ptrINSt7__cxx1112basic_stringIcSt11char_traitsIcESaIcEEESt14default_deleteIS5_EE5resetEPS5_
DA:89,0
DA:95,0
DA:96,0
DA:89,0
DA:95,0
DA:96,0
DA:166,50
DA:189,1008
DA:189,0
DA:191,0
DA:191,0
DA:193,0
DA:193,0
DA:198,0
DA:200,0
DA:201,0
DA:202,0
DA:203,0
DA:204,0
DA:296,50
DA:297,50
DA:298,50
DA:390,1008
DA:394,1008
DA:395,1008
DA:396,0
DA:397,1008
DA:398,1008
DA:390,0
DA:394,0
DA:395,0
DA:396,0
DA:397,0
DA:398,0
DA:443,0
DA:445,0
DA:446,0
DA:452,0
DA:455,0
DA:461,0
DA:462,0
DA:461,0
DA:462,0
DA:467,0
DA:468,0
DA:467,0
DA:468,0
DA:497,0
DA:501,0
DA:502,0
end_of_record
SF:/usr/include/c++/12/bits/stl_vector.h
FN:99,_ZNSt12_Vector_baseISt4pairIiNSt7__cxx1112basic_stringIcSt11char_traitsIcESaIcEEEESaIS7_EE17_Vector_impl_dataC2Ev
FNDA:34,_ZNSt12_Vector_baseISt4pairIiNSt7__cxx1112basic_stringIcSt11char_traitsIcESaIcEEEESaIS7_EE17_Vector_impl_dataC2Ev
FN:143,_ZNSt12_Vector_baseISt4pairIiNSt7__cxx1112basic_stringIcSt11char_traitsIcESaIcEEEESaIS7_EE12_Vector_implC2ERKS8_
FNDA:34,_ZNSt12_Vector_baseISt4pairIiNSt7__cxx1112basic_stringIcSt11char_traitsIcESaIcEEEESaIS7_EE12_Vector_implC2ERKS8_
FN:298,_ZNSt12_Vector_baseISt4pairIiNSt7__cxx1112basic_stringIcSt11char_traitsIcESaIcEEEESaIS7_EE19_M_get_Tp_allocatorEv
FNDA:102,_ZNSt12_Vector_baseISt4pairIiNSt7__cxx1112basic_stringIcSt11char_traitsIcESaIcEEEESaIS7_EE19_M_get_Tp_allocatorEv
FN:318,_ZNSt12_Vector_baseISt4pairIiNSt7__cxx1112basic_stringIcSt11char_traitsIcESaIcEEEESaIS7_EEC2ERKS8_
FNDA:34,_ZNSt12_Vector_baseISt4pairIiNSt7__cxx1112basic_stringIcSt11char_traitsIcESaIcEEEESaIS7_EEC2ERKS8_
FN:364,_ZNSt12_Vector_baseISt4pairIiNSt7__cxx1112basic_stringIcSt11char_traitsIcESaIcEEEESaIS7_EED2Ev
FNDA:34,_ZNSt12_Vector_baseISt4pairIiNSt7__cxx1112basic_stringIcSt11char_traitsIcESaIcEEEESaIS7_EED2Ev
FN:375,_ZNSt12_Vector_baseISt4pairIiNSt7__cxx1112basic_stringIcSt11char_traitsIcESaIcEEEESaIS7_EE11_M_allocateEm
FNDA:34,_ZNSt12_Vector_baseISt4pairIiNSt7__cxx1112basic_stringIcSt11char_traitsIcESaIcEEEESaIS7_EE11_M_allocateEm
FN:383,_ZNSt12_Vector_baseISt4pairIiNSt7__cxx1112basic_stringIcSt11char_traitsIcESaIcEEEESaIS7_EE13_M_deallocateEPS7_m
FNDA:34,_ZNSt12_Vector_baseISt4pairIiNSt7__cxx1112basic_stringIcSt11char_traitsIcESaIcEEEESaIS7_EE13_M_deallocateEPS7_m
FN:673,_ZNSt6vectorISt4pairIiNSt7__cxx1112basic_stringIcSt11char_traitsIcESaIcEEEESaIS7_EEC2ESt16initializer_listIS7_ERKS8_
FNDA:34,_ZNSt6vectorISt4pairIiNSt7__cxx1112basic_stringIcSt11char_traitsIcESaIcEEEESaIS7_EEC2ESt16initializer_listIS7_ERKS8_
FN:728,_ZNSt6vectorISt4pairIiNSt7__cxx1112basic_stringIcSt11char_traitsIcESaIcEEEESaIS7_EED2Ev
FNDA:34,_ZNSt6vectorISt4pairIiNSt7__cxx1112basic_stringIcSt11char_traitsIcESaIcEEEESaIS7_EED2Ev
FN:878,_ZNKSt6vectorISt4pairIiNSt7__cxx1112basic_stringIcSt11char_traitsIcESaIcEEEESaIS7_EE5beginEv
FNDA:34,_ZNKSt6vectorISt4pairIiNSt7__cxx1112basic_stringIcSt11char_traitsIcESaIcEEEESaIS7_EE5beginEv
FN:898,_ZNKSt6vectorISt4pairIiNSt7__cxx1112basic_stringIcSt11char_traitsIcESaIcEEEESaIS7_EE3endEv
FNDA:34,_ZNKSt6vectorISt4pairIiNSt7__cxx1112basic_stringIcSt11char_traitsIcESaIcEEEESaIS7_EE3endEv
FN:1682,_ZNSt6vectorISt4pairIiNSt7__cxx1112basic_stringIcSt11char_traitsIcESaIcEEEESaIS7_EE19_M_range_initializeIPKS7_EEvT_SD_St20forward_iterator_tag
FNDA:34,_ZNSt6vectorISt4pairIiNSt7__cxx1112basic_stringIcSt11char_traitsIcESaIcEEEESaIS7_EE19_M_range_initializeIPKS7_EEvT_SD_St20forward_iterator_tag
FN:1902,_ZNSt6vectorISt4pairIiNSt7__cxx1112basic_stringIcSt11char_traitsIcESaIcEEEESaIS7_EE17_S_check_init_lenEmRKS8_
FNDA:34,_ZNSt6vectorISt4pairIiNSt7__cxx1112basic_stringIcSt11char_traitsIcESaIcEEEESaIS7_EE17_S_check_init_lenEmRKS8_
FN:1911,_ZNSt6vectorISt4pairIiNSt7__cxx1112basic_stringIcSt11char_traitsIcESaIcEEEESaIS7_EE11_S_max_sizeERKS8_
FNDA:34,_ZNSt6vectorISt4pairIiNSt7__cxx1112basic_stringIcSt11char_traitsIcESaIcEEEESaIS7_EE11_S_max_sizeERKS8_
DA:99,34
DA:100,34
DA:101,34
DA:143,34
DA:144,34
DA:145,34
DA:298,102
DA:299,102
DA:318,34
DA:319,34
DA:364,34
DA:366,34
DA:367,34
DA:368,34
DA:375,34
DA:378,34
DA:383,34
DA:386,34
DA:387,34
DA:388,34
DA:673,34
DA:675,34
DA:677,34
DA:678,34
DA:679,34
DA:728,34
DA:730,34
DA:731,34
DA:733,34
DA:878,34
DA:879,34
DA:898,34
DA:899,34
DA:1682,34
DA:1685,34
DA:1687,34
DA:1688,34
DA:1689,34
DA:1690,34
DA:1692,34
DA:1693,34
DA:1902,34
DA:1904,34
DA:1905,0
DA:1907,34
DA:1911,34
DA:1916,34
DA:1918,34
DA:1919,34
end_of_record
SF:/usr/include/gtest/gtest-assertion-result.h
FN:155,_ZN7testing15AssertionResultC2IbEERKT_PNSt9enable_ifIXntsrSt14is_convertibleIS2_S0_E5valueEvE4typeE
FNDA:50,_ZN7testing15AssertionResultC2IbEERKT_PNSt9enable_ifIXntsrSt14is_convertibleIS2_S0_E5valueEvE4typeE
FN:174,_ZNK7testing15AssertionResultcvbEv
FNDA:1008,_ZNK7testing15AssertionResultcvbEv
FN:183,_ZNK7testing15AssertionResult7messageEv
FNDA:0,_ZNK7testing15AssertionResult7messageEv
FN:187,_ZNK7testing15AssertionResult15failure_messageEv
FNDA:0,_ZNK7testing15AssertionResult15failure_messageEv
FN:191,_ZN7testing15AssertionResultlsIA5_cEERS0_RKT_
FNDA:0,_ZN7testing15AssertionResultlsIA5_cEERS0_RKT_
FN:191,_ZN7testing15AssertionResultlsINSt7__cxx1112basic_stringIcSt11char_traitsIcESaIcEEEEERS0_RKT_
FNDA:0,_ZN7testing15AssertionResultlsINSt7__cxx1112basic_stringIcSt11char_traitsIcESaIcEEEEERS0_RKT_
FN:191,_ZN7testing15AssertionResultlsIA3_cEERS0_RKT_
FNDA:0,_ZN7testing15AssertionResultlsIA3_cEERS0_RKT_
FN:191,_ZN7testing15AssertionResultlsIPKcEERS0_RKT_
FNDA:0,_ZN7testing15AssertionResultlsIPKcEERS0_RKT_
FN:191,_ZN7testing15AssertionResultlsIA12_cEERS0_RKT_
FNDA:0,_ZN7testing15AssertionResultlsIA12_cEERS0_RKT_
FN:206,_ZN7testing15AssertionResult13AppendMessageERKNS_7MessageE
FNDA:0,_ZN7testing15AssertionResult13AppendMessageERKNS_7MessageE
DA:155,50
DA:161,50
DA:174,1008
DA:183,0
DA:184,0
DA:187,0
DA:191,0
DA:192,0
DA:193,0
DA:191,0
DA:192,0
DA:193,0
DA:191,0
DA:192,0
DA:193,0
DA:191,0
DA:192,0
DA:193,0
DA:191,0
DA:192,0
DA:193,0
DA:206,0
DA:207,0
DA:208,0
DA:209,0
end_of_record
SF:/usr/include/gtest/gtest-printers.h
FN:182,_ZN7testing8internal14PointerPrinter10PrintValueIN10LinkedList8DoubleLLEEEvPT_PSo
FNDA:0,_ZN7testing8internal14PointerPrinter10PrintValueIN10LinkedList8DoubleLLEEEvPT_PSo
FN:213,_ZN7testing8internal52internal_stream_operator_without_lexical_name_lookup13StreamPrinter10PrintValueIivRSoEEvRKT_PSo
FNDA:0,_ZN7testing8internal52internal_stream_operator_without_lexical_name_lookup13StreamPrinter10PrintValueIivRSoEEvRKT_PSo
FN:213,_ZN7testing8internal52internal_stream_operator_without_lexical_name_lookup13StreamPrinter10PrintValueImvRSoEEvRKT_PSo
FNDA:0,_ZN7testing8internal52internal_stream_operator_without_lexical_name_lookup13StreamPrinter10PrintValueImvRSoEEvRKT_PSo
FN:305,_ZN7testing8internal17PrintWithFallbackImEEvRKT_PSo
FNDA:0,_ZN7testing8internal17PrintWithFallbackImEEvRKT_PSo
FN:305,_ZN7testing8internal17PrintWithFallbackIiEEvRKT_PSo
FNDA:0,_ZN7testing8internal17PrintWithFallbackIiEEvRKT_PSo
FN:305,_ZN7testing8internal17PrintWithFallbackIPN10LinkedList8DoubleLLEEEvRKT_PSo
FNDA:0,_ZN7testing8internal17PrintWithFallbackIPN10LinkedList8DoubleLLEEEvRKT_PSo
FN:332,_ZN7testing8internal19FormatForComparisonINSt7__cxx1112basic_stringIcSt11char_traitsIcESaIcEEES7_E6FormatERKS7_
FNDA:0,_ZN7testing8internal19FormatForComparisonINSt7__cxx1112basic_stringIcSt11char_traitsIcESaIcEEES7_E6FormatERKS7_
FN:332,_ZN7testing8internal19FormatForComparisonIiiE6FormatB5cxx11ERKi
FNDA:0,_ZN7testing8internal19FormatForComparisonIiiE6FormatB5cxx11ERKi
FN:332,_ZN7testing8internal19FormatForComparisonIPN10LinkedList8DoubleLLES4_E6FormatB5cxx11ERKS4_
FNDA:0,_ZN7testing8internal19FormatForComparisonIPN10LinkedList8DoubleLLES4_E6FormatB5cxx11ERKS4_
FN:332,_ZN7testing8internal19FormatForComparisonImiE6FormatB5cxx11ERKm
FNDA:0,_ZN7testing8internal19FormatForComparisonImiE6FormatB5cxx11ERKm
FN:332,_ZN7testing8internal19FormatForComparisonIimE6FormatB5cxx11ERKi
FNDA:0,_ZN7testing8internal19FormatForComparisonIimE6FormatB5cxx11ERKi
FN:332,_ZN7testing8internal19FormatForComparisonIDnPN10LinkedList8DoubleLLEE6FormatB5cxx11ERKDn
FNDA:0,_ZN7testing8internal19FormatForComparisonIDnPN10LinkedList8DoubleLLEE6FormatB5cxx11ERKDn
FN:332,_ZN7testing8internal19FormatForComparisonIPN10LinkedList8DoubleLLEDnE6FormatB5cxx11ERKS4_
FNDA:0,_ZN7testing8internal19FormatForComparisonIPN10LinkedList8DoubleLLEDnE6FormatB5cxx11ERKS4_
FN:412,_ZN7testing8internal33FormatForComparisonFailureMessageImiEENSt7__cxx1112basic_stringIcSt11char_traitsIcESaIcEEERKT_RKT0_
FNDA:0,_ZN7testing8internal33FormatForComparisonFailureMessageImiEENSt7__cxx1112basic_stringIcSt11char_traitsIcESaIcEEERKT_RKT0_
FN:412,_ZN7testing8internal33FormatForComparisonFailureMessageIimEENSt7__cxx1112basic_stringIcSt11char_traitsIcESaIcEEERKT_RKT0_
FNDA:0,_ZN7testing8internal33FormatForComparisonFailureMessageIimEENSt7__cxx1112basic_stringIcSt11char_traitsIcESaIcEEERKT_RKT0_
FN:412,_ZN7testing8internal33FormatForComparisonFailureMessageIDnPN10LinkedList8DoubleLLEEENSt7__cxx1112basic_stringIcSt11char_traitsIcESaIcEEERKT_RKT0_
FNDA:0,_ZN7testing8internal33FormatForComparisonFailureMessageIDnPN10LinkedList8DoubleLLEEENSt7__cxx1112basic_stringIcSt11char_traitsIcESaIcEEERKT_RKT0_
FN:412,_ZN7testing8internal33FormatForComparisonFailureMessageIPN10LinkedList8DoubleLLES4_EENSt7__cxx1112basic_stringIcSt11char_traitsIcESaIcEEERKT_RKT0_
FNDA:0,_ZN7testing8internal33FormatForComparisonFailureMessageIPN10LinkedList8DoubleLLES4_EENSt7__cxx1112basic_stringIcSt11char_traitsIcESaIcEEERKT_RKT0_
FN:412,_ZN7testing8internal33FormatForComparisonFailureMessageIiiEENSt7__cxx1112basic_stringIcSt11char_traitsIcESaIcEEERKT_RKT0_
FNDA:0,_ZN7testing8internal33FormatForComparisonFailureMessageIiiEENSt7__cxx1112basic_stringIcSt11char_traitsIcESaIcEEERKT_RKT0_
FN:412,_ZN7testing8internal33FormatForComparisonFailureMessageINSt7__cxx1112basic_stringIcSt11char_traitsIcESaIcEEES7_EES7_RKT_RKT0_
FNDA:0,_ZN7testing8internal33FormatForComparisonFailureMessageINSt7__cxx1112basic_stringIcSt11char_traitsIcESaIcEEES7_EES7_RKT_RKT0_
FN:412,_ZN7testing8internal33FormatForComparisonFailureMessageIPN10LinkedList8DoubleLLEDnEENSt7__cxx1112basic_stringIcSt11char_traitsIcESaIcEEERKT_RKT0_
FNDA:0,_ZN7testing8internal33FormatForComparisonFailureMessageIPN10LinkedList8DoubleLLEDnEENSt7__cxx1112basic_stringIcSt11char_traitsIcESaIcEEERKT_RKT0_
FN:439,_ZN7testing8internal7PrintToIPN10LinkedList8DoubleLLEEEvRKT_PSo
FNDA:0,_ZN7testing8internal7PrintToIPN10LinkedList8DoubleLLEEEvRKT_PSo
FN:439,_ZN7testing8internal7PrintToIiEEvRKT_PSo
FNDA:0,_ZN7testing8internal7PrintToIiEEvRKT_PSo
FN:439,_ZN7testing8internal7PrintToImEEvRKT_PSo
FNDA:0,_ZN7testing8internal7PrintToImEEvRKT_PSo
FN:554,_ZN7testing8internal7PrintToERKNSt7__cxx1112basic_stringIcSt11char_traitsIcESaIcEEEPSo
FNDA:0,_ZN7testing8internal7PrintToERKNSt7__cxx1112basic_stringIcSt11char_traitsIcESaIcEEEPSo
FN:593,_ZN7testing8internal7PrintToEDnPSo
FNDA:0,_ZN7testing8internal7PrintToEDnPSo
FN:693,_ZN7testing8internal16UniversalPrinterImE5PrintERKmPSo
FNDA:0,_ZN7testing8internal16UniversalPrinterImE5PrintERKmPSo
FN:693,_ZN7testing8internal16UniversalPrinterINSt7__cxx1112basic_stringIcSt11char_traitsIcESaIcEEEE5PrintERKS7_PSo
FNDA:0,_ZN7testing8internal16UniversalPrinterINSt7__cxx1112basic_stringIcSt11char_traitsIcESaIcEEEE5PrintERKS7_PSo
FN:693,_ZN7testing8internal16UniversalPrinterIiE5PrintERKiPSo
FNDA:0,_ZN7testing8internal16UniversalPrinterIiE5PrintERKiPSo
FN:693,_ZN7testing8internal16UniversalPrinterIDnE5PrintERKDnPSo
FNDA:0,_ZN7testing8internal16UniversalPrinterIDnE5PrintERKDnPSo
FN:693,_ZN7testing8internal16UniversalPrinterIPN10LinkedList8DoubleLLEE5PrintERKS4_PSo
FNDA:0,_ZN7testing8internal16UniversalPrinterIPN10LinkedList8DoubleLLEE5PrintERKS4_PSo
FN:883,_ZN7testing8internal21UniversalTersePrinterIPN10LinkedList8DoubleLLEE5PrintERKS4_PSo
FNDA:0,_ZN7testing8internal21UniversalTersePrinterIPN10LinkedList8DoubleLLEE5PrintERKS4_PSo
FN:883,_ZN7testing8internal21UniversalTersePrinterIDnE5PrintERKDnPSo
FNDA:0,_ZN7testing8internal21UniversalTersePrinterIDnE5PrintERKDnPSo
FN:883,_ZN7testing8internal21UniversalTersePrinterIiE5PrintERKiPSo
FNDA:0,_ZN7testing8internal21UniversalTersePrinterIiE5PrintERKiPSo
FN:883,_ZN7testing8internal21UniversalTersePrinterImE5PrintERKmPSo
FNDA:0,_ZN7testing8internal21UniversalTersePrinterImE5PrintERKmPSo
FN:883,_ZN7testing8internal21UniversalTersePrinterINSt7__cxx1112basic_stringIcSt11char_traitsIcESaIcEEEE5PrintERKS7_PSo
FNDA:0,_ZN7testing8internal21UniversalTersePrinterINSt7__cxx1112basic_stringIcSt11char_traitsIcESaIcEEEE5PrintERKS7_PSo
FN:995,_ZN7testing8internal14UniversalPrintIDnEEvRKT_PSo
FNDA:0,_ZN7testing8internal14UniversalPrintIDnEEvRKT_PSo
FN:995,_ZN7testing8internal14UniversalPrintINSt7__cxx1112basic_stringIcSt11char_traitsIcESaIcEEEEEvRKT_PSo
FNDA:0,_ZN7testing8internal14UniversalPrintINSt7__cxx1112basic_stringIcSt11char_traitsIcESaIcEEEEEvRKT_PSo
FN:995,_ZN7testing8internal14UniversalPrintImEEvRKT_PSo
FNDA:0,_ZN7testing8internal14UniversalPrintImEEvRKT_PSo
FN:995,_ZN7testing8internal14UniversalPrintIiEEvRKT_PSo
FNDA:0,_ZN7testing8internal14UniversalPrintIiEEvRKT_PSo
FN:995,_ZN7testing8internal14UniversalPrintIPN10LinkedList8DoubleLLEEEvRKT_PSo
FNDA:0,_ZN7testing8internal14UniversalPrintIPN10LinkedList8DoubleLLEEEvRKT_PSo
FN:1035,_ZN7testing13PrintToStringIiEENSt7__cxx1112basic_stringIcSt11char_traitsIcESaIcEEERKT_
FNDA:0,_ZN7testing13PrintToStringIiEENSt7__cxx1112basic_stringIcSt11char_traitsIcESaIcEEERKT_
FN:1035,_ZN7testing13PrintToStringINSt7__cxx1112basic_stringIcSt11char_traitsIcESaIcEEEEES6_RKT_
FNDA:0,_ZN7testing13PrintToStringINSt7__cxx1112basic_stringIcSt11char_traitsIcESaIcEEEEES6_RKT_
FN:1035,_ZN7testing13PrintToStringIPN10LinkedList8DoubleLLEEENSt7__cxx1112basic_stringIcSt11char_traitsIcESaIcEEERKT_
FNDA:0,_ZN7testing13PrintToStringIPN10LinkedList8DoubleLLEEENSt7__cxx1112basic_stringIcSt11char_traitsIcESaIcEEERKT_
FN:1035,_ZN7testing13PrintToStringIDnEENSt7__cxx1112basic_stringIcSt11char_traitsIcESaIcEEERKT_
FNDA:0,_ZN7testing13PrintToStringIDnEENSt7__cxx1112basic_stringIcSt11char_traitsIcESaIcEEERKT_
FN:1035,_ZN7testing13PrintToStringImEENSt7__cxx1112basic_stringIcSt11char_traitsIcESaIcEEERKT_
FNDA:0,_ZN7testing13PrintToStringImEENSt7__cxx1112basic_stringIcSt11char_traitsIcESaIcEEERKT_
DA:182,0
DA:183,0
DA:184,0
DA:189,0
DA:191,0
DA:213,0
DA:216,0
DA:217,0
DA:213,0
DA:216,0
DA:217,0
DA:305,0
DA:311,0
DA:312,0
DA:305,0
DA:311,0
DA:312,0
DA:305,0
DA:311,0
DA:312,0
DA:332,0
DA:333,0
DA:332,0
DA:333,0
DA:332,0
DA:333,0
DA:332,0
DA:333,0
DA:332,0
DA:333,0
DA:332,0
DA:333,0
DA:332,0
DA:333,0
DA:412,0
DA:414,0
DA:412,0
DA:414,0
DA:412,0
DA:414,0
DA:412,0
DA:414,0
DA:412,0
DA:414,0
DA:412,0
DA:414,0
DA:412,0
DA:414,0
DA:439,0
DA:440,0
DA:441,0
DA:439,0
DA:440,0
DA:441,0
DA:439,0
DA:440,0
DA:441,0
DA:554,0
DA:555,0
DA:556,0
DA:593,0
DA:693,0
DA:702,0
DA:703,0
DA:693,0
DA:702,0
DA:703,0
DA:693,0
DA:702,0
DA:703,0
DA:693,0
DA:702,0
DA:703,0
DA:693,0
DA:702,0
DA:703,0
DA:883,0
DA:884,0
DA:885,0
DA:883,0
DA:884,0
DA:885,0
DA:883,0
DA:884,0
DA:885,0
DA:883,0
DA:884,0
DA:885,0
DA:883,0
DA:884,0
DA:885,0
DA:995,0
DA:999,0
DA:1000,0
DA:995,0
DA:999,0
DA:1000,0
DA:995,0
DA:999,0
DA:1000,0
DA:995,0
DA:999,0
DA:1000,0
DA:995,0
DA:999,0
DA:1000,0
DA:1035,0
DA:1036,0
DA:1037,0
DA:1038,0
DA:1039,0
DA:1035,0
DA:1036,0
DA:1037,0
DA:1038,0
DA:1039,0
DA:1035,0
DA:1036,0
DA:1037,0
DA:1038,0
DA:1039,0
DA:1035,0
DA:1036,0
DA:1037,0
DA:1038,0
DA:1039,0
DA:1035,0
DA:1036,0
DA:1037,0
DA:1038,0
DA:1039,0
end_of_record
SF:/usr/include/gtest/gtest.h
FN:244,_ZN7testing4Test14SetUpTestSuiteEv
FNDA:0,_ZN7testing4Test14SetUpTestSuiteEv
FN:252,_ZN7testing4Test17TearDownTestSuiteEv
FNDA:0,_ZN7testing4Test17TearDownTestSuiteEv
FN:257,_ZN7testing4Test16TearDownTestCaseEv
FNDA:0,_ZN7testing4Test16TearDownTestCaseEv
FN:258,_ZN7testing4Test13SetUpTestCaseEv
FNDA:0,_ZN7testing4Test13SetUpTestCaseEv
FN:339,_ZN7testing4Test5SetupEv
FNDA:0,_ZN7testing4Test5SetupEv
FN:1338,_ZN7testing8internal18CmpHelperEQFailureIiiEENS_15AssertionResultEPKcS4_RKT_RKT0_
FNDA:0,_ZN7testing8internal18CmpHelperEQFailureIiiEENS_15AssertionResultEPKcS4_RKT_RKT0_
FN:1338,_ZN7testing8internal18CmpHelperEQFailureINSt7__cxx1112basic_stringIcSt11char_traitsIcESaIcEEES7_EENS_15AssertionResultEPKcSA_RKT_RKT0_
FNDA:0,_ZN7testing8internal18CmpHelperEQFailureINSt7__cxx1112basic_stringIcSt11char_traitsIcESaIcEEES7_EENS_15AssertionResultEPKcSA_RKT_RKT0_
FN:1338,_ZN7testing8internal18CmpHelperEQFailureIPN10LinkedList8DoubleLLES4_EENS_15AssertionResultEPKcS7_RKT_RKT0_
FNDA:0,_ZN7testing8internal18CmpHelperEQFailureIPN10LinkedList8DoubleLLES4_EENS_15AssertionResultEPKcS7_RKT_RKT0_
FN:1338,_ZN7testing8internal18CmpHelperEQFailureIPN10LinkedList8DoubleLLEDnEENS_15AssertionResultEPKcS7_RKT_RKT0_
FNDA:0,_ZN7testing8internal18CmpHelperEQFailureIPN10LinkedList8DoubleLLEDnEENS_15AssertionResultEPKcS7_RKT_RKT0_
FN:1338,_ZN7testing8internal18CmpHelperEQFailureIimEENS_15AssertionResultEPKcS4_RKT_RKT0_
FNDA:0,_ZN7testing8internal18CmpHelperEQFailureIimEENS_15AssertionResultEPKcS4_RKT_RKT0_
FN:1355,_ZN7testing8internal11CmpHelperEQIPN10LinkedList8DoubleLLES4_EENS_15AssertionResultEPKcS7_RKT_RKT0_
FNDA:140,_ZN7testing8internal11CmpHelperEQIPN10LinkedList8DoubleLLES4_EENS_15AssertionResultEPKcS7_RKT_RKT0_
FN:1355,_ZN7testing8internal11CmpHelperEQINSt7__cxx1112basic_stringIcSt11char_traitsIcESaIcEEES7_EENS_15AssertionResultEPKcSA_RKT_RKT0_
FNDA:132,_ZN7testing8internal11CmpHelperEQINSt7__cxx1112basic_stringIcSt11char_traitsIcESaIcEEES7_EENS_15AssertionResultEPKcSA_RKT_RKT0_
FN:1355,_ZN7testing8internal11CmpHelperEQIimEENS_15AssertionResultEPKcS4_RKT_RKT0_
FNDA:50,_ZN7testing8internal11CmpHelperEQIimEENS_15AssertionResultEPKcS4_RKT_RKT0_
FN:1355,_ZN7testing8internal11CmpHelperEQIPN10LinkedList8DoubleLLEDnEENS_15AssertionResultEPKcS7_RKT_RKT0_
FNDA:154,_ZN7testing8internal11CmpHelperEQIPN10LinkedList8DoubleLLEDnEENS_15AssertionResultEPKcS7_RKT_RKT0_
FN:1355,_ZN7testing8internal11CmpHelperEQIiiEENS_15AssertionResultEPKcS4_RKT_RKT0_
FNDA:166,_ZN7testing8internal11CmpHelperEQIiiEENS_15AssertionResultEPKcS4_RKT_RKT0_
FN:1374,_ZN7testing8internal8EqHelper7CompareIiiLPv0EEENS_15AssertionResultEPKcS6_RKT_RKT0_
FNDA:166,_ZN7testing8internal8EqHelper7CompareIiiLPv0EEENS_15AssertionResultEPKcS6_RKT_RKT0_
FN:1374,_ZN7testing8internal8EqHelper7CompareIPN10LinkedList8DoubleLLES5_LPv0EEENS_15AssertionResultEPKcS9_RKT_RKT0_
FNDA:140,_ZN7testing8internal8EqHelper7CompareIPN10LinkedList8DoubleLLES5_LPv0EEENS_15AssertionResultEPKcS9_RKT_RKT0_
FN:1374,_ZN7testing8internal8EqHelper7CompareIPN10LinkedList8DoubleLLEDnLPv0EEENS_15AssertionResultEPKcS9_RKT_RKT0_
FNDA:154,_ZN7testing8internal8EqHelper7CompareIPN10LinkedList8DoubleLLEDnLPv0EEENS_15AssertionResultEPKcS9_RKT_RKT0_
FN:1374,_ZN7testing8internal8EqHelper7CompareIimLPv0EEENS_15AssertionResultEPKcS6_RKT_RKT0_
FNDA:50,_ZN7testing8internal8EqHelper7CompareIimLPv0EEENS_15AssertionResultEPKcS6_RKT_RKT0_
FN:1374,_ZN7testing8internal8EqHelper7CompareINSt7__cxx1112basic_stringIcSt11char_traitsIcESaIcEEES8_LPv0EEENS_15AssertionResultEPKcSC_RKT_RKT0_
FNDA:132,_ZN7testing8internal8EqHelper7CompareINSt7__cxx1112basic_stringIcSt11char_traitsIcESaIcEEES8_LPv0EEENS_15AssertionResultEPKcSC_RKT_RKT0_
FN:1407,_ZN7testing8internal18CmpHelperOpFailureIPN10LinkedList8DoubleLLEDnEENS_15AssertionResultEPKcS7_RKT_RKT0_S7_
FNDA:0,_ZN7testing8internal18CmpHelperOpFailureIPN10LinkedList8DoubleLLEDnEENS_15AssertionResultEPKcS7_RKT_RKT0_S7_
FN:1436,_ZN7testing8internal11CmpHelperNEIPN10LinkedList8DoubleLLEDnEENS_15AssertionResultEPKcS7_RKT_RKT0_
FNDA:316,_ZN7testing8internal11CmpHelperNEIPN10LinkedList8DoubleLLEDnEENS_15AssertionResultEPKcS7_RKT_RKT0_
FN:2293,_Z13RUN_ALL_TESTSv
FNDA:2,_Z13RUN_ALL_TESTSv
DA:244,0
DA:252,0
DA:257,0
DA:258,0
DA:339,0
DA:1338,0
DA:1343,0
DA:1338,0
DA:1343,0
DA:1338,0
DA:1343,0
DA:1338,0
DA:1343,0
DA:1338,0
DA:1343,0
DA:1355,132
DA:1358,132
DA:1359,132
DA:1362,0
DA:1355,166
DA:1358,166
DA:1359,166
DA:1362,0
DA:1355,140
DA:1358,140
DA:1359,140
DA:1362,0
DA:1355,154
DA:1358,154
DA:1359,154
DA:1362,0
DA:1355,50
DA:1358,50
DA:1359,50
DA:1362,0
DA:1374,132
DA:1377,132
DA:1374,166
DA:1377,166
DA:1374,140
DA:1377,140
DA:1374,154
DA:1377,154
DA:1374,50
DA:1377,50
DA:1407,0
DA:1411,0
DA:1412,0
DA:1413,0
DA:1436,316
DA:2293,2
end_of_record
SF:/usr/include/c++/12/iostream
end_of_record
SF:/usr/include/c++/12/tuple
FN:80,_ZNSt10_Head_baseILm1ESt14default_deleteINSt7__cxx1112basic_stringIcSt11char_traitsIcESaIcEEEELb1EEC2Ev
FNDA:50,_ZNSt10_Head_baseILm1ESt14default_deleteINSt7__cxx1112basic_stringIcSt11char_traitsIcESaIcEEEELb1EEC2Ev
FN:124,_ZNSt10_Head_baseILm1ESt14default_deleteINSt7__cxx1118basic_stringstreamIcSt11char_traitsIcESaIcEEEELb1EE7_M_headERS8_
FNDA:0,_ZNSt10_Head_baseILm1ESt14default_deleteINSt7__cxx1118basic_stringstreamIcSt11char_traitsIcESaIcEEEELb1EE7_M_headERS8_
FN:124,_ZNSt10_Head_baseILm1ESt14default_deleteINSt7__cxx1112basic_stringIcSt11char_traitsIcESaIcEEEELb1EE7_M_headERS8_
FNDA:0,_ZNSt10_Head_baseILm1ESt14default_deleteINSt7__cxx1112basic_stringIcSt11char_traitsIcESaIcEEEELb1EE7_M_headERS8_
FN:189,_ZNSt10_Head_baseILm0EPNSt7__cxx1112basic_stringIcSt11char_traitsIcESaIcEEELb0EEC2Ev
FNDA:50,_ZNSt10_Head_baseILm0EPNSt7__cxx1112basic_stringIcSt11char_traitsIcESaIcEEELb0EEC2Ev
FN:233,_ZNSt10_Head_baseILm0EPNSt7__cxx1112basic_stringIcSt11char_traitsIcESaIcEEELb0EE7_M_headERS7_
FNDA:1008,_ZNSt10_Head_baseILm0EPNSt7__cxx1112basic_stringIcSt11char_traitsIcESaIcEEELb0EE7_M_headERS7_
FN:233,_ZNSt10_Head_baseILm0EPNSt7__cxx1118basic_stringstreamIcSt11char_traitsIcESaIcEEELb0EE7_M_headERS7_
FNDA:0,_ZNSt10_Head_baseILm0EPNSt7__cxx1118basic_stringstreamIcSt11char_traitsIcESaIcEEELb0EE7_M_headERS7_
FN:236,_ZNSt10_Head_baseILm0EPNSt7__cxx1118basic_stringstreamIcSt11char_traitsIcESaIcEEELb0EE7_M_headERKS7_
FNDA:0,_ZNSt10_Head_baseILm0EPNSt7__cxx1118basic_stringstreamIcSt11char_traitsIcESaIcEEELb0EE7_M_headERKS7_
FN:236,_ZNSt10_Head_baseILm0EPNSt7__cxx1112basic_stringIcSt11char_traitsIcESaIcEEELb0EE7_M_headERKS7_
FNDA:0,_ZNSt10_Head_baseILm0EPNSt7__cxx1112basic_stringIcSt11char_traitsIcESaIcEEELb0EE7_M_headERKS7_
FN:268,_ZNSt11_Tuple_implILm0EJPNSt7__cxx1118basic_stringstreamIcSt11char_traitsIcESaIcEEESt14default_deleteIS5_EEE7_M_headERS9_
FNDA:0,_ZNSt11_Tuple_implILm0EJPNSt7__cxx1118basic_stringstreamIcSt11char_traitsIcESaIcEEESt14default_deleteIS5_EEE7_M_headERS9_
FN:268,_ZNSt11_Tuple_implILm0EJPNSt7__cxx1112basic_stringIcSt11char_traitsIcESaIcEEESt14default_deleteIS5_EEE7_M_headERS9_
FNDA:1008,_ZNSt11_Tuple_implILm0EJPNSt7__cxx1112basic_stringIcSt11char_traitsIcESaIcEEESt14default_deleteIS5_EEE7_M_headERS9_
FN:271,_ZNSt11_Tuple_implILm0EJPNSt7__cxx1112basic_stringIcSt11char_traitsIcESaIcEEESt14default_deleteIS5_EEE7_M_headERKS9_
FNDA:0,_ZNSt11_Tuple_implILm0EJPNSt7__cxx1112basic_stringIcSt11char_traitsIcESaIcEEESt14default_deleteIS5_EEE7_M_headERKS9_
FN:271,_ZNSt11_Tuple_implILm0EJPNSt7__cxx1118basic_stringstreamIcSt11char_traitsIcESaIcEEESt14default_deleteIS5_EEE7_M_headERKS9_
FNDA:0,_ZNSt11_Tuple_implILm0EJPNSt7__cxx1118basic_stringstreamIcSt11char_traitsIcESaIcEEESt14default_deleteIS5_EEE7_M_headERKS9_
FN:279,_ZNSt11_Tuple_implILm0EJPNSt7__cxx1112basic_stringIcSt11char_traitsIcESaIcEEESt14default_deleteIS5_EEEC2Ev
FNDA:50,_ZNSt11_Tuple_implILm0EJPNSt7__cxx1112basic_stringIcSt11char_traitsIcESaIcEEESt14default_deleteIS5_EEEC2Ev
FN:424,_ZNSt11_Tuple_implILm1EJSt14default_deleteINSt7__cxx1118basic_stringstreamIcSt11char_traitsIcESaIcEEEEEE7_M_headERS8_
FNDA:0,_ZNSt11_Tuple_implILm1EJSt14default_deleteINSt7__cxx1118basic_stringstreamIcSt11char_traitsIcESaIcEEEEEE7_M_headERS8_
FN:424,_ZNSt11_Tuple_implILm1EJSt14default_deleteINSt7__cxx1112basic_stringIcSt11char_traitsIcESaIcEEEEEE7_M_headERS8_
FNDA:0,_ZNSt11_Tuple_implILm1EJSt14default_deleteINSt7__cxx1112basic_stringIcSt11char_traitsIcESaIcEEEEEE7_M_headERS8_
FN:430,_ZNSt11_Tuple_implILm1EJSt14default_deleteINSt7__cxx1112basic_stringIcSt11char_traitsIcESaIcEEEEEEC2Ev
FNDA:50,_ZNSt11_Tuple_implILm1EJSt14default_deleteINSt7__cxx1112basic_stringIcSt11char_traitsIcESaIcEEEEEEC2Ev
FN:1049,_ZNSt5tupleIJPNSt7__cxx1112basic_stringIcSt11char_traitsIcESaIcEEESt14default_deleteIS5_EEEC2ILb1ELb1EEEv
FNDA:50,_ZNSt5tupleIJPNSt7__cxx1112basic_stringIcSt11char_traitsIcESaIcEEESt14default_deleteIS5_EEEC2ILb1ELb1EEEv
FN:1364,_ZSt12__get_helperILm1ESt14default_deleteINSt7__cxx1112basic_stringIcSt11char_traitsIcESaIcEEEEJEERT0_RSt11_Tuple_implIXT_EJS8_DpT1_EE
FNDA:0,_ZSt12__get_helperILm1ESt14default_deleteINSt7__cxx1112basic_stringIcSt11char_traitsIcESaIcEEEEJEERT0_RSt11_Tuple_implIXT_EJS8_DpT1_EE
FN:1364,_ZSt12__get_helperILm1ESt14default_deleteINSt7__cxx1118basic_stringstreamIcSt11char_traitsIcESaIcEEEEJEERT0_RSt11_Tuple_implIXT_EJS8_DpT1_EE
FNDA:0,_ZSt12__get_helperILm1ESt14default_deleteINSt7__cxx1118basic_stringstreamIcSt11char_traitsIcESaIcEEEEJEERT0_RSt11_Tuple_implIXT_EJS8_DpT1_EE
FN:1364,_ZSt12__get_helperILm0EPNSt7__cxx1112basic_stringIcSt11char_traitsIcESaIcEEEJSt14default_deleteIS5_EEERT0_RSt11_Tuple_implIXT_EJS9_DpT1_EE
FNDA:1008,_ZSt12__get_helperILm0EPNSt7__cxx1112basic_stringIcSt11char_traitsIcESaIcEEEJSt14default_deleteIS5_EEERT0_RSt11_Tuple_implIXT_EJS9_DpT1_EE
FN:1364,_ZSt12__get_helperILm0EPNSt7__cxx1118basic_stringstreamIcSt11char_traitsIcESaIcEEEJSt14default_deleteIS5_EEERT0_RSt11_Tuple_implIXT_EJS9_DpT1_EE
FNDA:0,_ZSt12__get_helperILm0EPNSt7__cxx1118basic_stringstreamIcSt11char_traitsIcESaIcEEEJSt14default_deleteIS5_EEERT0_RSt11_Tuple_implIXT_EJS9_DpT1_EE
FN:1369,_ZSt12__get_helperILm0EPNSt7__cxx1118basic_stringstreamIcSt11char_traitsIcESaIcEEEJSt14default_deleteIS5_EEERKT0_RKSt11_Tuple_implIXT_EJS9_DpT1_EE
FNDA:0,_ZSt12__get_helperILm0EPNSt7__cxx1118basic_stringstreamIcSt11char_traitsIcESaIcEEEJSt14default_deleteIS5_EEERKT0_RKSt11_Tuple_implIXT_EJS9_DpT1_EE
FN:1369,_ZSt12__get_helperILm0EPNSt7__cxx1112basic_stringIcSt11char_traitsIcESaIcEEEJSt14default_deleteIS5_EEERKT0_RKSt11_Tuple_implIXT_EJS9_DpT1_EE
FNDA:0,_ZSt12__get_helperILm0EPNSt7__cxx1112basic_stringIcSt11char_traitsIcESaIcEEEJSt14default_deleteIS5_EEERKT0_RKSt11_Tuple_implIXT_EJS9_DpT1_EE
FN:1380,_ZSt3getILm0EJPNSt7__cxx1118basic_stringstreamIcSt11char_traitsIcESaIcEEESt14default_deleteIS5_EEERNSt13tuple_elementIXT_ESt5tupleIJDpT0_EEE4typeERSD_
FNDA:0,_ZSt3getILm0EJPNSt7__cxx1118basic_stringstreamIcSt11char_traitsIcESaIcEEESt14default_deleteIS5_EEERNSt13tuple_elementIXT_ESt5tupleIJDpT0_EEE4typeERSD_
FN:1380,_ZSt3getILm0EJPNSt7__cxx1112basic_stringIcSt11char_traitsIcESaIcEEESt14default_deleteIS5_EEERNSt13tuple_elementIXT_ESt5tupleIJDpT0_EEE4typeERSD_
FNDA:1008,_ZSt3getILm0EJPNSt7__cxx1112basic_stringIcSt11char_traitsIcESaIcEEESt14default_deleteIS5_EEERNSt13tuple_elementIXT_ESt5tupleIJDpT0_EEE4typeERSD_
FN:1380,_ZSt3getILm1EJPNSt7__cxx1118basic_stringstreamIcSt11char_traitsIcESaIcEEESt14default_deleteIS5_EEERNSt13tuple_elementIXT_ESt5tupleIJDpT0_EEE4typeERSD_
FNDA:0,_ZSt3getILm1EJPNSt7__cxx1118basic_stringstreamIcSt11char_traitsIcESaIcEEESt14default_deleteIS5_EEERNSt13tuple_elementIXT_ESt5tupleIJDpT0_EEE4typeERSD_
FN:1380,_ZSt3getILm1EJPNSt7__cxx1112basic_stringIcSt11char_traitsIcESaIcEEESt14default_deleteIS5_EEERNSt13tuple_elementIXT_ESt5tupleIJDpT0_EEE4typeERSD_
FNDA:0,_ZSt3getILm1EJPNSt7__cxx1112basic_stringIcSt11char_traitsIcESaIcEEESt14default_deleteIS5_EEERNSt13tuple_elementIXT_ESt5tupleIJDpT0_EEE4typeERSD_
FN:1386,_ZSt3getILm0EJPNSt7__cxx1118basic_stringstreamIcSt11char_traitsIcESaIcEEESt14default_deleteIS5_EEERKNSt13tuple_elementIXT_ESt5tupleIJDpT0_EEE4typeERKSD_
FNDA:0,_ZSt3getILm0EJPNSt7__cxx1118basic_stringstreamIcSt11char_traitsIcESaIcEEESt14default_deleteIS5_EEERKNSt13tuple_elementIXT_ESt5tupleIJDpT0_EEE4typeERKSD_
FN:1386,_ZSt3getILm0EJPNSt7__cxx1112basic_stringIcSt11char_traitsIcESaIcEEESt14default_deleteIS5_EEERKNSt13tuple_elementIXT_ESt5tupleIJDpT0_EEE4typeERKSD_
FNDA:0,_ZSt3getILm0EJPNSt7__cxx1112basic_stringIcSt11char_traitsIcESaIcEEESt14default_deleteIS5_EEERKNSt13tuple_elementIXT_ESt5tupleIJDpT0_EEE4typeERKSD_
DA:80,50
DA:81,50
DA:124,0
DA:124,0
DA:189,50
DA:190,50
DA:233,1008
DA:233,0
DA:236,0
DA:236,0
DA:268,1008
DA:268,0
DA:271,0
DA:271,0
DA:279,50
DA:280,50
DA:424,0
DA:424,0
DA:430,50
DA:431,50
DA:1049,50
DA:1051,50
DA:1364,0
DA:1365,0
DA:1364,0
DA:1365,0
DA:1364,1008
DA:1365,1008
DA:1364,0
DA:1365,0
DA:1369,0
DA:1370,0
DA:1369,0
DA:1370,0
DA:1380,0
DA:1381,0
DA:1380,0
DA:1381,0
DA:1380,1008
DA:1381,1008
DA:1380,0
DA:1381,0
DA:1386,0
DA:1387,0
DA:1386,0
DA:1387,0
end_of_record
SF:/usr/include/gtest/internal/gtest-internal.h
FN:431,_ZN7testing8internal9GetTypeIdIN10LinkedList22DoublelyLinkedListTestEEEPKvv
FNDA:22,_ZN7testing8internal9GetTypeIdIN10LinkedList22DoublelyLinkedListTestEEEPKvv
FN:450,_ZN7testing8internal15TestFactoryBaseD2Ev
FNDA:22,_ZN7testing8internal15TestFactoryBaseD2Ev
FN:450,_ZN7testing8internal15TestFactoryBaseD0Ev
FNDA:0,_ZN7testing8internal15TestFactoryBaseD0Ev
FN:457,_ZN7testing8internal15TestFactoryBaseC2Ev
FNDA:22,_ZN7testing8internal15TestFactoryBaseC2Ev
FN:469,_ZN7testing8internal15TestFactoryImplIN10LinkedList37DoublelyLinkedListTest_SwapNodes_TestEE10CreateTestEv
FNDA:2,_ZN7testing8internal15TestFactoryImplIN10LinkedList37DoublelyLinkedListTest_SwapNodes_TestEE10CreateTestEv
FN:469,_ZN7testing8internal15TestFactoryImplIN10LinkedList38DoublelyLinkedListTest_Destructor_TestEE10CreateTestEv
FNDA:2,_ZN7testing8internal15TestFactoryImplIN10LinkedList38DoublelyLinkedListTest_Destructor_TestEE10CreateTestEv
FN:469,_ZN7testing8internal15TestFactoryImplIN10LinkedList39DoublelyLinkedListTest_Constructor_TestEE10CreateTestEv
FNDA:2,_ZN7testing8internal15TestFactoryImplIN10LinkedList39DoublelyLinkedListTest_Constructor_TestEE10CreateTestEv
FN:469,_ZN7testing8internal15TestFactoryImplIN10LinkedList43DoublelyLinkedListTest_RemoveNodeByKey_TestEE10CreateTestEv
FNDA:2,_ZN7testing8internal15TestFactoryImplIN10LinkedList43DoublelyLinkedListTest_RemoveNodeByKey_TestEE10CreateTestEv
FN:469,_ZN7testing8internal15TestFactoryImplIN10LinkedList47DoublelyLinkedListTest_RemoveNodeByPointer_TestEE10CreateTestEv
FNDA:2,_ZN7testing8internal15TestFactoryImplIN10LinkedList47DoublelyLinkedListTest_RemoveNodeByPointer_TestEE10CreateTestEv
FN:469,_ZN7testing8internal15TestFactoryImplIN10LinkedList41DoublelyLinkedListTest_MoveNodeFront_TestEE10CreateTestEv
FNDA:2,_ZN7testing8internal15TestFactoryImplIN10LinkedList41DoublelyLinkedListTest_MoveNodeFront_TestEE10CreateTestEv
FN:469,_ZN7testing8internal15TestFactoryImplIN10LinkedList40DoublelyLinkedListTest_GetNodeByKey_TestEE10CreateTestEv
FNDA:2,_ZN7testing8internal15TestFactoryImplIN10LinkedList40DoublelyLinkedListTest_GetNodeByKey_TestEE10CreateTestEv
FN:469,_ZN7testing8internal15TestFactoryImplIN10LinkedList42DoublelyLinkedListTest_GetNodeByValue_TestEE10CreateTestEv
FNDA:2,_ZN7testing8internal15TestFactoryImplIN10LinkedList42DoublelyLinkedListTest_GetNodeByValue_TestEE10CreateTestEv
FN:469,_ZN7testing8internal15TestFactoryImplIN10LinkedList45DoublelyLinkedListTest_AddNodeAtPosition_TestEE10CreateTestEv
FNDA:2,_ZN7testing8internal15TestFactoryImplIN10LinkedList45DoublelyLinkedListTest_AddNodeAtPosition_TestEE10CreateTestEv
FN:469,_ZN7testing8internal15TestFactoryImplIN10LinkedList40DoublelyLinkedListTest_AddNodeFront_TestEE10CreateTestEv
FNDA:2,_ZN7testing8internal15TestFactoryImplIN10LinkedList40DoublelyLinkedListTest_AddNodeFront_TestEE10CreateTestEv
FN:469,_ZN7testing8internal15TestFactoryImplIN10LinkedList35DoublelyLinkedListTest_AddNode_TestEE10CreateTestEv
FNDA:2,_ZN7testing8internal15TestFactoryImplIN10LinkedList35DoublelyLinkedListTest_AddNode_TestEE10CreateTestEv
FN:490,_ZN7testing8internal12CodeLocationC2ERKNSt7__cxx1112basic_stringIcSt11char_traitsIcESaIcEEEi
FNDA:22,_ZN7testing8internal12CodeLocationC2ERKNSt7__cxx1112basic_stringIcSt11char_traitsIcESaIcEEEi
FN:503,_ZN7testing8internal19GetNotDefaultOrNullEPFvvES2_
FNDA:88,_ZN7testing8internal19GetNotDefaultOrNullEPFvvES2_
FN:518,_ZN7testing8internal16SuiteApiResolverIN10LinkedList22DoublelyLinkedListTestEE19GetSetUpCaseOrSuiteEPKci
FNDA:22,_ZN7testing8internal16SuiteApiResolverIN10LinkedList22DoublelyLinkedListTestEE19GetSetUpCaseOrSuiteEPKci
FN:539,_ZN7testing8internal16SuiteApiResolverIN10LinkedList22DoublelyLinkedListTestEE22GetTearDownCaseOrSuiteEPKci
FNDA:22,_ZN7testing8internal16SuiteApiResolverIN10LinkedList22DoublelyLinkedListTestEE22GetTearDownCaseOrSuiteEPKci
DA:431,22
DA:436,22
DA:450,0
DA:450,22
DA:457,22
DA:469,2
DA:469,2
DA:469,2
DA:469,2
DA:469,2
DA:469,2
DA:469,2
DA:469,2
DA:469,2
DA:469,2
DA:469,2
DA:490,22
DA:491,22
DA:503,88
DA:505,88
DA:518,22
DA:522,22
DA:524,22
DA:526,22
DA:529,0
DA:531,22
DA:539,22
DA:543,22
DA:545,22
DA:547,22
DA:550,0
DA:552,22
end_of_record
SF:/home/boss/cjadhav/work/Programming_Practice/chef_kitchen/LRU/test/DoublelyLinkedListTest.cpp
FN:11,_ZN10LinkedList22DoublelyLinkedListTest10VerifyListEv
FNDA:50,_ZN10LinkedList22DoublelyLinkedListTest10VerifyListEv
FN:46,_ZN10LinkedList22DoublelyLinkedListTest10VerifyNodeEPNS_8DoubleLLEiRKNSt7__cxx1112basic_stringIcSt11char_traitsIcESaIcEEE
FNDA:132,_ZN10LinkedList22DoublelyLinkedListTest10VerifyNodeEPNS_8DoubleLLEiRKNSt7__cxx1112basic_stringIcSt11char_traitsIcESaIcEEE
FN:53,_ZN10LinkedList22DoublelyLinkedListTest17VerifyListContentERKSt6vectorISt4pairIiNSt7__cxx1112basic_stringIcSt11char_traitsIcESaIcEEEESaIS9_EE
FNDA:34,_ZN10LinkedList22DoublelyLinkedListTest17VerifyListContentERKSt6vectorISt4pairIiNSt7__cxx1112basic_stringIcSt11char_traitsIcESaIcEEEESaIS9_EE
FN:65,_ZN10LinkedList39DoublelyLinkedListTest_Constructor_TestC2Ev
FNDA:2,_ZN10LinkedList39DoublelyLinkedListTest_Constructor_TestC2Ev
FN:65,_ZN10LinkedList39DoublelyLinkedListTest_Constructor_Test8TestBodyEv
FNDA:2,_ZN10LinkedList39DoublelyLinkedListTest_Constructor_Test8TestBodyEv
FN:65,_ZN10LinkedList39DoublelyLinkedListTest_Constructor_TestD2Ev
FNDA:2,_ZN10LinkedList39DoublelyLinkedListTest_Constructor_TestD2Ev
FN:65,_ZN10LinkedList39DoublelyLinkedListTest_Constructor_TestD0Ev
FNDA:2,_ZN10LinkedList39DoublelyLinkedListTest_Constructor_TestD0Ev
FN:73,_ZN10LinkedList35DoublelyLinkedListTest_AddNode_TestC2Ev
FNDA:2,_ZN10LinkedList35DoublelyLinkedListTest_AddNode_TestC2Ev
FN:73,_ZN10LinkedList35DoublelyLinkedListTest_AddNode_Test8TestBodyEv
FNDA:2,_ZN10LinkedList35DoublelyLinkedListTest_AddNode_Test8TestBodyEv
FN:73,_ZN10LinkedList35DoublelyLinkedListTest_AddNode_TestD2Ev
FNDA:2,_ZN10LinkedList35DoublelyLinkedListTest_AddNode_TestD2Ev
FN:73,_ZN10LinkedList35DoublelyLinkedListTest_AddNode_TestD0Ev
FNDA:2,_ZN10LinkedList35DoublelyLinkedListTest_AddNode_TestD0Ev
FN:91,_ZN10LinkedList40DoublelyLinkedListTest_AddNodeFront_TestC2Ev
FNDA:2,_ZN10LinkedList40DoublelyLinkedListTest_AddNodeFront_TestC2Ev
FN:91,_ZN10LinkedList40DoublelyLinkedListTest_AddNodeFront_TestD0Ev
FNDA:2,_ZN10LinkedList40DoublelyLinkedListTest_AddNodeFront_TestD0Ev
FN:91,_ZN10LinkedList40DoublelyLinkedListTest_AddNodeFront_TestD2Ev
FNDA:2,_ZN10LinkedList40DoublelyLinkedListTest_AddNodeFront_TestD2Ev
FN:91,_ZN10LinkedList40DoublelyLinkedListTest_AddNodeFront_Test8TestBodyEv
FNDA:2,_ZN10LinkedList40DoublelyLinkedListTest_AddNodeFront_Test8TestBodyEv
FN:109,_ZN10LinkedList45DoublelyLinkedListTest_AddNodeAtPosition_Test8TestBodyEv
FNDA:2,_ZN10LinkedList45DoublelyLinkedListTest_AddNodeAtPosition_Test8TestBodyEv
FN:109,_ZN10LinkedList45DoublelyLinkedListTest_AddNodeAtPosition_TestD0Ev
FNDA:2,_ZN10LinkedList45DoublelyLinkedListTest_AddNodeAtPosition_TestD0Ev
FN:109,_ZN10LinkedList45DoublelyLinkedListTest_AddNodeAtPosition_TestD2Ev
FNDA:2,_ZN10LinkedList45DoublelyLinkedListTest_AddNodeAtPosition_TestD2Ev
FN:109,_ZN10LinkedList45DoublelyLinkedListTest_AddNodeAtPosition_TestC2Ev
FNDA:2,_ZN10LinkedList45DoublelyLinkedListTest_AddNodeAtPosition_TestC2Ev
FN:142,_ZN10LinkedList42DoublelyLinkedListTest_GetNodeByValue_Test8TestBodyEv
FNDA:2,_ZN10LinkedList42DoublelyLinkedListTest_GetNodeByValue_Test8TestBodyEv
FN:142,_ZN10LinkedList42DoublelyLinkedListTest_GetNodeByValue_TestD0Ev
FNDA:2,_ZN10LinkedList42DoublelyLinkedListTest_GetNodeByValue_TestD0Ev
FN:142,_ZN10LinkedList42DoublelyLinkedListTest_GetNodeByValue_TestD2Ev
FNDA:2,_ZN10LinkedList42DoublelyLinkedListTest_GetNodeByValue_TestD2Ev
FN:142,_ZN10LinkedList42DoublelyLinkedListTest_GetNodeByValue_TestC2Ev
FNDA:2,_ZN10LinkedList42DoublelyLinkedListTest_GetNodeByValue_TestC2Ev
FN:163,_ZN10LinkedList40DoublelyLinkedListTest_GetNodeByKey_Test8TestBodyEv
FNDA:2,_ZN10LinkedList40DoublelyLinkedListTest_GetNodeByKey_Test8TestBodyEv
FN:163,_ZN10LinkedList40DoublelyLinkedListTest_GetNodeByKey_TestC2Ev
FNDA:2,_ZN10LinkedList40DoublelyLinkedListTest_GetNodeByKey_TestC2Ev
FN:163,_ZN10LinkedList40DoublelyLinkedListTest_GetNodeByKey_TestD2Ev
FNDA:2,_ZN10LinkedList40DoublelyLinkedListTest_GetNodeByKey_TestD2Ev
FN:163,_ZN10LinkedList40DoublelyLinkedListTest_GetNodeByKey_TestD0Ev
FNDA:2,_ZN10LinkedList40DoublelyLinkedListTest_GetNodeByKey_TestD0Ev
FN:184,_ZN10LinkedList41DoublelyLinkedListTest_MoveNodeFront_TestD2Ev
FNDA:2,_ZN10LinkedList41DoublelyLinkedListTest_MoveNodeFront_TestD2Ev
FN:184,_ZN10LinkedList41DoublelyLinkedListTest_MoveNodeFront_TestD0Ev
FNDA:2,_ZN10LinkedList41DoublelyLinkedListTest_MoveNodeFront_TestD0Ev
FN:184,_ZN10LinkedList41DoublelyLinkedListTest_MoveNodeFront_TestC2Ev
FNDA:2,_ZN10LinkedList41DoublelyLinkedListTest_MoveNodeFront_TestC2Ev
FN:184,_ZN10LinkedList41DoublelyLinkedListTest_MoveNodeFront_Test8TestBodyEv
FNDA:2,_ZN10LinkedList41DoublelyLinkedListTest_MoveNodeFront_Test8TestBodyEv
FN:209,_ZN10LinkedList47DoublelyLinkedListTest_RemoveNodeByPointer_TestD0Ev
FNDA:2,_ZN10LinkedList47DoublelyLinkedListTest_RemoveNodeByPointer_TestD0Ev
FN:209,_ZN10LinkedList47DoublelyLinkedListTest_RemoveNodeByPointer_TestD2Ev
FNDA:2,_ZN10LinkedList47DoublelyLinkedListTest_RemoveNodeByPointer_TestD2Ev
FN:209,_ZN10LinkedList47DoublelyLinkedListTest_RemoveNodeByPointer_TestC2Ev
FNDA:2,_ZN10LinkedList47DoublelyLinkedListTest_RemoveNodeByPointer_TestC2Ev
FN:209,_ZN10LinkedList47DoublelyLinkedListTest_RemoveNodeByPointer_Test8TestBodyEv
FNDA:2,_ZN10LinkedList47DoublelyLinkedListTest_RemoveNodeByPointer_Test8TestBodyEv
FN:238,_ZN10LinkedList43DoublelyLinkedListTest_RemoveNodeByKey_TestD0Ev
FNDA:2,_ZN10LinkedList43DoublelyLinkedListTest_RemoveNodeByKey_TestD0Ev
FN:238,_ZN10LinkedList43DoublelyLinkedListTest_RemoveNodeByKey_TestD2Ev
FNDA:2,_ZN10LinkedList43DoublelyLinkedListTest_RemoveNodeByKey_TestD2Ev
FN:238,_ZN10LinkedList43DoublelyLinkedListTest_RemoveNodeByKey_TestC2Ev
FNDA:2,_ZN10LinkedList43DoublelyLinkedListTest_RemoveNodeByKey_TestC2Ev
FN:238,_ZN10LinkedList43DoublelyLinkedListTest_RemoveNodeByKey_Test8TestBodyEv
FNDA:2,_ZN10LinkedList43DoublelyLinkedListTest_RemoveNodeByKey_Test8TestBodyEv
FN:266,_ZN10LinkedList37DoublelyLinkedListTest_SwapNodes_TestD0Ev
FNDA:2,_ZN10LinkedList37DoublelyLinkedListTest_SwapNodes_TestD0Ev
FN:266,_ZN10LinkedList37DoublelyLinkedListTest_SwapNodes_Test8TestBodyEv
FNDA:2,_ZN10LinkedList37DoublelyLinkedListTest_SwapNodes_Test8TestBodyEv
FN:266,_ZN10LinkedList37DoublelyLinkedListTest_SwapNodes_TestD2Ev
FNDA:2,_ZN10LinkedList37DoublelyLinkedListTest_SwapNodes_TestD2Ev
FN:266,_ZN10LinkedList37DoublelyLinkedListTest_SwapNodes_TestC2Ev
FNDA:2,_ZN10LinkedList37DoublelyLinkedListTest_SwapNodes_TestC2Ev
FN:307,_ZN10LinkedList38DoublelyLinkedListTest_Destructor_Test8TestBodyEv
FNDA:2,_ZN10LinkedList38DoublelyLinkedListTest_Destructor_Test8TestBodyEv
FN:307,_ZN10LinkedList38DoublelyLinkedListTest_Destructor_TestD2Ev
FNDA:2,_ZN10LinkedList38DoublelyLinkedListTest_Destructor_TestD2Ev
FN:307,_ZN10LinkedList38DoublelyLinkedListTest_Destructor_TestD0Ev
FNDA:2,_ZN10LinkedList38DoublelyLinkedListTest_Destructor_TestD0Ev
FN:307,_ZN10LinkedList38DoublelyLinkedListTest_Destructor_TestC2Ev
FNDA:2,_ZN10LinkedList38DoublelyLinkedListTest_Destructor_TestC2Ev
FN:316,main
FNDA:2,main
DA:11,50
DA:13,50
DA:14,50
DA:15,164
DA:16,114
DA:17,114
DA:19,50
DA:22,50
DA:23,6
DA:24,6
DA:26,44
DA:27,44
DA:28,44
DA:29,44
DA:33,50
DA:34,120
DA:35,70
DA:36,70
DA:38,50
DA:39,120
DA:40,70
DA:41,70
DA:43,50
DA:46,132
DA:47,132
DA:48,132
DA:49,132
DA:53,34
DA:54,34
DA:55,130
DA:56,96
DA:57,96
DA:58,96
DA:60,34
DA:65,2
DA:65,2
DA:65,2
DA:65,2
DA:66,2
DA:67,2
DA:68,2
DA:69,2
DA:70,2
DA:73,2
DA:73,2
DA:73,2
DA:73,2
DA:75,2
DA:76,2
DA:77,2
DA:78,2
DA:79,2
DA:82,2
DA:83,2
DA:84,2
DA:85,2
DA:86,6
DA:87,2
DA:88,4
DA:91,2
DA:91,2
DA:91,2
DA:91,2
DA:93,2
DA:94,2
DA:95,2
DA:96,2
DA:97,2
DA:100,2
DA:101,2
DA:102,2
DA:103,2
DA:104,6
DA:105,2
DA:106,4
DA:109,2
DA:109,2
DA:109,2
DA:109,2
DA:111,2
DA:112,2
DA:113,2
DA:116,2
DA:117,2
DA:118,2
DA:119,2
DA:120,2
DA:123,2
DA:124,2
DA:125,6
DA:126,2
DA:129,2
DA:130,2
DA:131,8
DA:132,2
DA:135,2
DA:136,2
DA:137,10
DA:138,2
DA:139,8
DA:142,2
DA:142,2
DA:142,2
DA:142,2
DA:144,2
DA:147,2
DA:148,2
DA:149,2
DA:150,2
DA:153,2
DA:154,2
DA:155,2
DA:156,2
DA:157,2
DA:158,2
DA:159,2
DA:160,2
DA:163,2
DA:163,2
DA:163,2
DA:163,2
DA:165,2
DA:168,2
DA:169,2
DA:170,2
DA:171,2
DA:174,2
DA:175,2
DA:176,2
DA:177,2
DA:178,2
DA:179,2
DA:180,2
DA:181,2
DA:184,2
DA:184,2
DA:184,2
DA:184,2
DA:185,2
DA:186,2
DA:187,2
DA:190,2
DA:191,2
DA:192,8
DA:193,2
DA:196,2
DA:197,2
DA:198,8
DA:199,2
DA:202,2
DA:203,2
DA:204,8
DA:205,2
DA:206,8
DA:209,2
DA:209,2
DA:209,2
DA:209,2
DA:210,2
DA:211,2
DA:212,2
DA:215,2
DA:216,2
DA:217,2
DA:218,6
DA:219,2
DA:222,2
DA:223,2
DA:224,2
DA:225,4
DA:226,2
DA:229,2
DA:230,2
DA:231,2
DA:232,2
DA:233,2
DA:234,2
DA:235,6
DA:238,2
DA:238,2
DA:238,2
DA:238,2
DA:239,2
DA:240,2
DA:241,2
DA:244,2
DA:245,2
DA:248,2
DA:249,2
DA:250,6
DA:251,2
DA:254,2
DA:255,2
DA:256,4
DA:257,2
DA:260,2
DA:261,2
DA:262,2
DA:263,6
DA:266,2
DA:266,2
DA:266,2
DA:266,2
DA:267,2
DA:268,2
DA:269,2
DA:270,2
DA:273,2
DA:274,2
DA:275,10
DA:276,2
DA:279,2
DA:280,2
DA:281,10
DA:282,2
DA:285,2
DA:286,2
DA:287,2
DA:288,10
DA:289,2
DA:292,2
DA:293,2
DA:294,2
DA:295,10
DA:296,2
DA:299,2
DA:300,2
DA:301,2
DA:302,10
DA:303,2
DA:304,12
DA:307,2
DA:307,2
DA:307,2
DA:307,2
DA:308,2
DA:309,2
DA:310,2
DA:311,2
DA:312,2
DA:316,2
DA:317,2
DA:318,2
end_of_record
SF:/usr/include/c++/12/bits/basic_string.h
FN:634,_ZNSt7__cxx1112basic_stringIcSt11char_traitsIcESaIcEEC2IS3_EEPKcRKS3_
FNDA:230,_ZNSt7__cxx1112basic_stringIcSt11char_traitsIcESaIcEEC2IS3_EEPKcRKS3_
FN:3584,_ZSteqIcEN9__gnu_cxx11__enable_ifIXsrSt9__is_charIT_E7__valueEbE6__typeERKNSt7__cxx1112basic_stringIS3_St11char_traitsIS3_ESaIS3_EEESE_
FNDA:0,_ZSteqIcEN9__gnu_cxx11__enable_ifIXsrSt9__is_charIT_E7__valueEbE6__typeERKNSt7__cxx1112basic_stringIS3_St11char_traitsIS3_ESaIS3_EEESE_
DA:358,208
DA:634,230
DA:635,230
DA:638,230
DA:639,0
DA:641,230
DA:642,230
DA:643,230
DA:3584,0
DA:3586,0
DA:3587,0
DA:3588,0
end_of_record
SF:/usr/include/c++/12/bits/move.h
FN:49,_ZSt11__addressofISt4pairIiNSt7__cxx1112basic_stringIcSt11char_traitsIcESaIcEEEEEPT_RS8_
FNDA:192,_ZSt11__addressofISt4pairIiNSt7__cxx1112basic_stringIcSt11char_traitsIcESaIcEEEEEPT_RS8_
FN:77,_ZSt7forwardIRKSt4pairIiNSt7__cxx1112basic_stringIcSt11char_traitsIcESaIcEEEEEOT_RNSt16remove_referenceISA_E4typeE
FNDA:96,_ZSt7forwardIRKSt4pairIiNSt7__cxx1112basic_stringIcSt11char_traitsIcESaIcEEEEEOT_RNSt16remove_referenceISA_E4typeE
FN:77,_ZSt7forwardIRA5_KcEOT_RNSt16remove_referenceIS3_E4typeE
FNDA:12,_ZSt7forwardIRA5_KcEOT_RNSt16remove_referenceIS3_E4typeE
FN:77,_ZSt7forwardIRA6_KcEOT_RNSt16remove_referenceIS3_E4typeE
FNDA:26,_ZSt7forwardIRA6_KcEOT_RNSt16remove_referenceIS3_E4typeE
FN:77,_ZSt7forwardIRA4_KcEOT_RNSt16remove_referenceIS3_E4typeE
FNDA:58,_ZSt7forwardIRA4_KcEOT_RNSt16remove_referenceIS3_E4typeE
FN:77,_ZSt7forwardIiEOT_RNSt16remove_referenceIS0_E4typeE
FNDA:96,_ZSt7forwardIiEOT_RNSt16remove_referenceIS0_E4typeE
FN:104,_ZSt4moveIRPNSt7__cxx1112basic_stringIcSt11char_traitsIcESaIcEEEEONSt16remove_referenceIT_E4typeEOS9_
FNDA:0,_ZSt4moveIRPNSt7__cxx1112basic_stringIcSt11char_traitsIcESaIcEEEEONSt16remove_referenceIT_E4typeEOS9_
FN:104,_ZSt4moveIRPNSt7__cxx1118basic_stringstreamIcSt11char_traitsIcESaIcEEEEONSt16remove_referenceIT_E4typeEOS9_
FNDA:0,_ZSt4moveIRPNSt7__cxx1118basic_stringstreamIcSt11char_traitsIcESaIcEEEEONSt16remove_referenceIT_E4typeEOS9_
FN:104,_ZSt4moveIRSaIcEEONSt16remove_referenceIT_E4typeEOS3_
FNDA:0,_ZSt4moveIRSaIcEEONSt16remove_referenceIT_E4typeEOS3_
DA:49,192
DA:50,192
DA:77,96
DA:78,96
DA:77,12
DA:78,12
DA:77,26
DA:78,26
DA:77,58
DA:78,58
DA:77,96
DA:78,96
DA:104,0
DA:105,0
DA:104,0
DA:105,0
DA:104,0
DA:105,0
end_of_record
SF:/usr/include/c++/12/bits/char_traits.h
FN:121,_ZN9__gnu_cxx11char_traitsIcE2eqERKcS3_
FNDA:0,_ZN9__gnu_cxx11char_traitsIcE2eqERKcS3_
FN:182,_ZN9__gnu_cxx11char_traitsIcE6lengthEPKc
FNDA:0,_ZN9__gnu_cxx11char_traitsIcE6lengthEPKc
FN:362,_ZNSt11char_traitsIcE2ltERKcS2_
FNDA:0,_ZNSt11char_traitsIcE2ltERKcS2_
FN:370,_ZNSt11char_traitsIcE7compareEPKcS2_m
FNDA:0,_ZNSt11char_traitsIcE7compareEPKcS2_m
FN:389,_ZNSt11char_traitsIcE6lengthEPKc
FNDA:230,_ZNSt11char_traitsIcE6lengthEPKc
DA:121,0
DA:122,0
DA:182,0
DA:185,0
DA:186,0
DA:187,0
DA:188,0
DA:362,0
DA:365,0
DA:366,0
DA:370,0
DA:372,0
DA:373,0
DA:375,0
DA:377,0
DA:378,0
DA:379,0
DA:380,0
DA:381,0
DA:382,0
DA:385,0
DA:389,230
DA:392,230
DA:393,0
DA:395,230
end_of_record
SF:/usr/include/c++/12/bits/stl_algobase.h
FN:230,_ZSt3minImERKT_S2_S2_
FNDA:34,_ZSt3minImERKT_S2_S2_
DA:230,34
DA:235,34
DA:236,0
DA:237,34
end_of_record
SF:/usr/include/c++/12/bits/new_allocator.h
FN:80,_ZNSt15__new_allocatorISt4pairIiNSt7__cxx1112basic_stringIcSt11char_traitsIcESaIcEEEEEC2Ev
FNDA:34,_ZNSt15__new_allocatorISt4pairIiNSt7__cxx1112basic_stringIcSt11char_traitsIcESaIcEEEEEC2Ev
FN:80,_ZNSt15__new_allocatorIcEC2Ev
FNDA:0,_ZNSt15__new_allocatorIcEC2Ev
FN:83,_ZNSt15__new_allocatorISt4pairIiNSt7__cxx1112basic_stringIcSt11char_traitsIcESaIcEEEEEC2ERKS8_
FNDA:68,_ZNSt15__new_allocatorISt4pairIiNSt7__cxx1112basic_stringIcSt11char_traitsIcESaIcEEEEEC2ERKS8_
FN:83,_ZNSt15__new_allocatorIcEC2ERKS0_
FNDA:0,_ZNSt15__new_allocatorIcEC2ERKS0_
FN:90,_ZNSt15__new_allocatorISt4pairIiNSt7__cxx1112basic_stringIcSt11char_traitsIcESaIcEEEEED2Ev
FNDA:102,_ZNSt15__new_allocatorISt4pairIiNSt7__cxx1112basic_stringIcSt11char_traitsIcESaIcEEEEED2Ev
FN:90,_ZNSt15__new_allocatorIcED2Ev
FNDA:0,_ZNSt15__new_allocatorIcED2Ev
FN:112,_ZNSt15__new_allocatorISt4pairIiNSt7__cxx1112basic_stringIcSt11char_traitsIcESaIcEEEEE8allocateEmPKv
FNDA:34,_ZNSt15__new_allocatorISt4pairIiNSt7__cxx1112basic_stringIcSt11char_traitsIcESaIcEEEEE8allocateEmPKv
FN:142,_ZNSt15__new_allocatorISt4pairIiNSt7__cxx1112basic_stringIcSt11char_traitsIcESaIcEEEEE10deallocateEPS7_m
FNDA:34,_ZNSt15__new_allocatorISt4pairIiNSt7__cxx1112basic_stringIcSt11char_traitsIcESaIcEEEEE10deallocateEPS7_m
FN:167,_ZNKSt15__new_allocatorISt4pairIiNSt7__cxx1112basic_stringIcSt11char_traitsIcESaIcEEEEE8max_sizeEv
FNDA:34,_ZNKSt15__new_allocatorISt4pairIiNSt7__cxx1112basic_stringIcSt11char_traitsIcESaIcEEEEE8max_sizeEv
FN:210,_ZNKSt15__new_allocatorISt4pairIiNSt7__cxx1112basic_stringIcSt11char_traitsIcESaIcEEEEE11_M_max_sizeEv
FNDA:68,_ZNKSt15__new_allocatorISt4pairIiNSt7__cxx1112basic_stringIcSt11char_traitsIcESaIcEEEEE11_M_max_sizeEv
DA:80,34
DA:80,0
DA:83,68
DA:83,0
DA:90,102
DA:90,0
DA:112,34
DA:120,34
DA:124,0
DA:125,0
DA:126,0
DA:137,34
DA:142,34
DA:158,34
DA:167,34
DA:168,34
DA:210,68
DA:213,68
end_of_record
SF:/usr/include/c++/12/bits/stl_iterator_base_types.h
FN:238,_ZSt19__iterator_categoryIPKSt4pairIiNSt7__cxx1112basic_stringIcSt11char_traitsIcESaIcEEEEENSt15iterator_traitsIT_E17iterator_categoryERKSB_
FNDA:34,_ZSt19__iterator_categoryIPKSt4pairIiNSt7__cxx1112basic_stringIcSt11char_traitsIcESaIcEEEEENSt15iterator_traitsIT_E17iterator_categoryERKSB_
FN:238,_ZSt19__iterator_categoryIPcENSt15iterator_traitsIT_E17iterator_categoryERKS2_
FNDA:0,_ZSt19__iterator_categoryIPcENSt15iterator_traitsIT_E17iterator_categoryERKS2_
FN:238,_ZSt19__iterator_categoryIPKcENSt15iterator_traitsIT_E17iterator_categoryERKS3_
FNDA:230,_ZSt19__iterator_categoryIPKcENSt15iterator_traitsIT_E17iterator_categoryERKS3_
DA:238,34
DA:239,34
DA:238,0
DA:239,0
DA:238,230
DA:239,230
end_of_record
SF:/usr/include/gtest/gtest-message.h
FN:114,_ZN7testing7MessagelsIA5_cEERS0_RKT_
FNDA:0,_ZN7testing7MessagelsIA5_cEERS0_RKT_
FN:114,_ZN7testing7MessagelsINSt7__cxx1112basic_stringIcSt11char_traitsIcESaIcEEEEERS0_RKT_
FNDA:0,_ZN7testing7MessagelsINSt7__cxx1112basic_stringIcSt11char_traitsIcESaIcEEEEERS0_RKT_
FN:114,_ZN7testing7MessagelsIA3_cEERS0_RKT_
FNDA:0,_ZN7testing7MessagelsIA3_cEERS0_RKT_
FN:114,_ZN7testing7MessagelsIA12_cEERS0_RKT_
FNDA:0,_ZN7testing7MessagelsIA12_cEERS0_RKT_
FN:148,_ZN7testing7MessagelsIKcEERS0_RKPT_
FNDA:0,_ZN7testing7MessagelsIKcEERS0_RKPT_
DA:114,0
DA:130,0
DA:131,0
DA:114,0
DA:130,0
DA:131,0
DA:114,0
DA:130,0
DA:131,0
DA:114,0
DA:130,0
DA:131,0
DA:148,0
DA:149,0
DA:150,0
DA:152,0
DA:154,0
end_of_record
SF:/usr/include/c++/12/bits/stl_uninitialized.h
FN:113,_ZSt16__do_uninit_copyIPKSt4pairIiNSt7__cxx1112basic_stringIcSt11char_traitsIcESaIcEEEEPS7_ET0_T_SC_SB_
FNDA:34,_ZSt16__do_uninit_copyIPKSt4pairIiNSt7__cxx1112basic_stringIcSt11char_traitsIcESaIcEEEEPS7_ET0_T_SC_SB_
FN:135,_ZNSt20__uninitialized_copyILb0EE13__uninit_copyIPKSt4pairIiNSt7__cxx1112basic_stringIcSt11char_traitsIcESaIcEEEEPS9_EET0_T_SE_SD_
FNDA:34,_ZNSt20__uninitialized_copyILb0EE13__uninit_copyIPKSt4pairIiNSt7__cxx1112basic_stringIcSt11char_traitsIcESaIcEEEEPS9_EET0_T_SE_SD_
FN:163,_ZSt18uninitialized_copyIPKSt4pairIiNSt7__cxx1112basic_stringIcSt11char_traitsIcESaIcEEEEPS7_ET0_T_SC_SB_
FNDA:34,_ZSt18uninitialized_copyIPKSt4pairIiNSt7__cxx1112basic_stringIcSt11char_traitsIcESaIcEEEEPS7_ET0_T_SC_SB_
FN:365,_ZSt22__uninitialized_copy_aIPKSt4pairIiNSt7__cxx1112basic_stringIcSt11char_traitsIcESaIcEEEEPS7_S7_ET0_T_SC_SB_RSaIT1_E
FNDA:34,_ZSt22__uninitialized_copy_aIPKSt4pairIiNSt7__cxx1112basic_stringIcSt11char_traitsIcESaIcEEEEPS7_S7_ET0_T_SC_SB_RSaIT1_E
DA:113,34
DA:116,34
DA:119,130
DA:120,96
DA:121,34
DA:123,0
DA:125,0
DA:126,0
DA:135,34
DA:137,34
DA:163,34
DA:174,34
DA:181,34
DA:185,34
DA:365,34
DA:372,34
end_of_record
SF:/usr/include/c++/12/initializer_list
FN:71,_ZNKSt16initializer_listISt4pairIiNSt7__cxx1112basic_stringIcSt11char_traitsIcESaIcEEEEE4sizeEv
FNDA:34,_ZNKSt16initializer_listISt4pairIiNSt7__cxx1112basic_stringIcSt11char_traitsIcESaIcEEEEE4sizeEv
FN:75,_ZNKSt16initializer_listISt4pairIiNSt7__cxx1112basic_stringIcSt11char_traitsIcESaIcEEEEE5beginEv
FNDA:68,_ZNKSt16initializer_listISt4pairIiNSt7__cxx1112basic_stringIcSt11char_traitsIcESaIcEEEEE5beginEv
FN:79,_ZNKSt16initializer_listISt4pairIiNSt7__cxx1112basic_stringIcSt11char_traitsIcESaIcEEEEE3endEv
FNDA:34,_ZNKSt16initializer_listISt4pairIiNSt7__cxx1112basic_stringIcSt11char_traitsIcESaIcEEEEE3endEv
DA:71,34
DA:75,68
DA:79,34
end_of_record
SF:/usr/include/c++/12/new
FN:174,_ZnwmPv
FNDA:96,_ZnwmPv
FN:180,_ZdlPvS_
FNDA:0,_ZdlPvS_
DA:174,96
DA:175,96
DA:180,0
end_of_record
SF:/usr/include/x86_64-linux-gnu/c++/12/bits/c++config.h
FN:516,_ZSt23__is_constant_evaluatedv
FNDA:0,_ZSt23__is_constant_evaluatedv
DA:516,0
DA:523,0
end_of_record
SF:/usr/include/c++/12/bits/stl_iterator_base_funcs.h
FN:99,_ZSt10__distanceIPcENSt15iterator_traitsIT_E15difference_typeES2_S2_St26random_access_iterator_tag
FNDA:0,_ZSt10__distanceIPcENSt15iterator_traitsIT_E15difference_typeES2_S2_St26random_access_iterator_tag
FN:99,_ZSt10__distanceIPKcENSt15iterator_traitsIT_E15difference_typeES3_S3_St26random_access_iterator_tag
FNDA:230,_ZSt10__distanceIPKcENSt15iterator_traitsIT_E15difference_typeES3_S3_St26random_access_iterator_tag
FN:99,_ZSt10__distanceIPKSt4pairIiNSt7__cxx1112basic_stringIcSt11char_traitsIcESaIcEEEEENSt15iterator_traitsIT_E15difference_typeESB_SB_St26random_access_iterator_tag
FNDA:34,_ZSt10__distanceIPKSt4pairIiNSt7__cxx1112basic_stringIcSt11char_traitsIcESaIcEEEEENSt15iterator_traitsIT_E15difference_typeESB_SB_St26random_access_iterator_tag
FN:147,_ZSt8distanceIPcENSt15iterator_traitsIT_E15difference_typeES2_S2_
FNDA:0,_ZSt8distanceIPcENSt15iterator_traitsIT_E15difference_typeES2_S2_
FN:147,_ZSt8distanceIPKcENSt15iterator_traitsIT_E15difference_typeES3_S3_
FNDA:230,_ZSt8distanceIPKcENSt15iterator_traitsIT_E15difference_typeES3_S3_
FN:147,_ZSt8distanceIPKSt4pairIiNSt7__cxx1112basic_stringIcSt11char_traitsIcESaIcEEEEENSt15iterator_traitsIT_E15difference_typeESB_SB_
FNDA:34,_ZSt8distanceIPKSt4pairIiNSt7__cxx1112basic_stringIcSt11char_traitsIcESaIcEEEEENSt15iterator_traitsIT_E15difference_typeESB_SB_
DA:99,0
DA:105,0
DA:99,230
DA:105,230
DA:99,34
DA:105,34
DA:147,0
DA:150,0
DA:151,0
DA:147,230
DA:150,230
DA:151,460
DA:147,34
DA:150,34
DA:151,68
end_of_record
SF:/usr/include/c++/12/ext/alloc_traits.h
FN:97,_ZN9__gnu_cxx14__alloc_traitsISaIcEcE17_S_select_on_copyERKS1_
FNDA:0,_ZN9__gnu_cxx14__alloc_traitsISaIcEcE17_S_select_on_copyERKS1_
DA:97,0
DA:98,0
end_of_record
SF:/usr/include/c++/12/bits/basic_string.tcc
FN:217,_ZNSt7__cxx1112basic_stringIcSt11char_traitsIcESaIcEE12_M_constructIPcEEvT_S7_St20forward_iterator_tag
FNDA:0,_ZNSt7__cxx1112basic_stringIcSt11char_traitsIcESaIcEE12_M_constructIPcEEvT_S7_St20forward_iterator_tag
FN:217,_ZNSt7__cxx1112basic_stringIcSt11char_traitsIcESaIcEE12_M_constructIPKcEEvT_S8_St20forward_iterator_tag
FNDA:230,_ZNSt7__cxx1112basic_stringIcSt11char_traitsIcESaIcEE12_M_constructIPKcEEvT_S8_St20forward_iterator_tag
FN:235,_ZZNSt7__cxx1112basic_stringIcSt11char_traitsIcESaIcEE12_M_constructIPcEEvT_S7_St20forward_iterator_tagEN6_GuardC2EPS4_
FNDA:0,_ZZNSt7__cxx1112basic_stringIcSt11char_traitsIcESaIcEE12_M_constructIPcEEvT_S7_St20forward_iterator_tagEN6_GuardC2EPS4_
FN:235,_ZZNSt7__cxx1112basic_stringIcSt11char_traitsIcESaIcEE12_M_constructIPKcEEvT_S8_St20forward_iterator_tagEN6_GuardC2EPS4_
FNDA:230,_ZZNSt7__cxx1112basic_stringIcSt11char_traitsIcESaIcEE12_M_constructIPKcEEvT_S8_St20forward_iterator_tagEN6_GuardC2EPS4_
FN:238,_ZZNSt7__cxx1112basic_stringIcSt11char_traitsIcESaIcEE12_M_constructIPcEEvT_S7_St20forward_iterator_tagEN6_GuardD2Ev
FNDA:0,_ZZNSt7__cxx1112basic_stringIcSt11char_traitsIcESaIcEE12_M_constructIPcEEvT_S7_St20forward_iterator_tagEN6_GuardD2Ev
FN:238,_ZZNSt7__cxx1112basic_stringIcSt11char_traitsIcESaIcEE12_M_constructIPKcEEvT_S8_St20forward_iterator_tagEN6_GuardD2Ev
FNDA:230,_ZZNSt7__cxx1112basic_stringIcSt11char_traitsIcESaIcEE12_M_constructIPKcEEvT_S8_St20forward_iterator_tagEN6_GuardD2Ev
DA:217,0
DA:221,0
DA:223,0
DA:225,0
DA:226,0
DA:241,0
DA:243,0
DA:245,0
DA:247,0
DA:248,0
DA:217,230
DA:221,230
DA:223,230
DA:225,22
DA:226,22
DA:241,230
DA:243,230
DA:245,230
DA:247,230
DA:248,230
DA:235,0
DA:235,230
DA:238,0
DA:238,230
end_of_record
SF:/usr/include/c++/12/bits/alloc_traits.h
FN:463,_ZNSt16allocator_traitsISaISt4pairIiNSt7__cxx1112basic_stringIcSt11char_traitsIcESaIcEEEEEE8allocateERS8_m
FNDA:34,_ZNSt16allocator_traitsISaISt4pairIiNSt7__cxx1112basic_stringIcSt11char_traitsIcESaIcEEEEEE8allocateERS8_m
FN:495,_ZNSt16allocator_traitsISaISt4pairIiNSt7__cxx1112basic_stringIcSt11char_traitsIcESaIcEEEEEE10deallocateERS8_PS7_m
FNDA:34,_ZNSt16allocator_traitsISaISt4pairIiNSt7__cxx1112basic_stringIcSt11char_traitsIcESaIcEEEEEE10deallocateERS8_PS7_m
FN:547,_ZNSt16allocator_traitsISaISt4pairIiNSt7__cxx1112basic_stringIcSt11char_traitsIcESaIcEEEEEE8max_sizeERKS8_
FNDA:34,_ZNSt16allocator_traitsISaISt4pairIiNSt7__cxx1112basic_stringIcSt11char_traitsIcESaIcEEEEEE8max_sizeERKS8_
FN:562,_ZNSt16allocator_traitsISaIcEE37select_on_container_copy_constructionERKS0_
FNDA:0,_ZNSt16allocator_traitsISaIcEE37select_on_container_copy_constructionERKS0_
FN:847,_ZSt8_DestroyIPSt4pairIiNSt7__cxx1112basic_stringIcSt11char_traitsIcESaIcEEEES7_EvT_S9_RSaIT0_E
FNDA:34,_ZSt8_DestroyIPSt4pairIiNSt7__cxx1112basic_stringIcSt11char_traitsIcESaIcEEEES7_EvT_S9_RSaIT0_E
DA:463,34
DA:464,34
DA:495,34
DA:496,34
DA:547,34
DA:550,34
DA:562,0
DA:563,0
DA:847,34
DA:850,34
DA:851,34
end_of_record
